
IMU_V100.elf:     file format elf32-littlearm

Sections:
Idx Name          Size      VMA       LMA       File off  Algn
  0 .isr_vector   00000188  08000000  08000000  00001000  2**0
                  CONTENTS, ALLOC, LOAD, READONLY, DATA
  1 .text         00003d5c  08000188  08000188  00001188  2**2
                  CONTENTS, ALLOC, LOAD, READONLY, CODE
  2 .rodata       00000414  08003ee4  08003ee4  00004ee4  2**2
                  CONTENTS, ALLOC, LOAD, READONLY, DATA
  3 .ARM.extab    00000000  080042f8  080042f8  00006004  2**0
                  CONTENTS
  4 .ARM          00000000  080042f8  080042f8  00006004  2**0
                  CONTENTS
  5 .preinit_array 00000000  080042f8  080042f8  00006004  2**0
                  CONTENTS, ALLOC, LOAD, DATA
  6 .init_array   00000004  080042f8  080042f8  000052f8  2**2
                  CONTENTS, ALLOC, LOAD, READONLY, DATA
  7 .fini_array   00000004  080042fc  080042fc  000052fc  2**2
                  CONTENTS, ALLOC, LOAD, READONLY, DATA
  8 .data         00000004  20000000  08004300  00006000  2**2
                  CONTENTS, ALLOC, LOAD, DATA
  9 .ccmram       00000000  10000000  10000000  00006004  2**0
                  CONTENTS
 10 .bss          000003f4  20000004  20000004  00006004  2**2
                  ALLOC
 11 ._user_heap_stack 00000600  200003f8  200003f8  00006004  2**0
                  ALLOC
 12 .ARM.attributes 00000030  00000000  00000000  00006004  2**0
                  CONTENTS, READONLY
 13 .debug_info   0000b4fb  00000000  00000000  00006034  2**0
                  CONTENTS, READONLY, DEBUGGING, OCTETS
 14 .debug_abbrev 00001200  00000000  00000000  0001152f  2**0
                  CONTENTS, READONLY, DEBUGGING, OCTETS
 15 .debug_aranges 00000490  00000000  00000000  00012730  2**3
                  CONTENTS, READONLY, DEBUGGING, OCTETS
 16 .debug_rnglists 00000385  00000000  00000000  00012bc0  2**0
                  CONTENTS, READONLY, DEBUGGING, OCTETS
 17 .debug_macro  00001412  00000000  00000000  00012f45  2**0
                  CONTENTS, READONLY, DEBUGGING, OCTETS
 18 .debug_line   000082fa  00000000  00000000  00014357  2**0
                  CONTENTS, READONLY, DEBUGGING, OCTETS
 19 .debug_str    000913ac  00000000  00000000  0001c651  2**0
                  CONTENTS, READONLY, DEBUGGING, OCTETS
 20 .comment      00000043  00000000  00000000  000ad9fd  2**0
                  CONTENTS, READONLY
 21 .debug_frame  000012ac  00000000  00000000  000ada40  2**2
                  CONTENTS, READONLY, DEBUGGING, OCTETS
 22 .debug_line_str 00000048  00000000  00000000  000aecec  2**0
                  CONTENTS, READONLY, DEBUGGING, OCTETS

Disassembly of section .text:

08000188 <__do_global_dtors_aux>:
 8000188:	b510      	push	{r4, lr}
 800018a:	4c05      	ldr	r4, [pc, #20]	@ (80001a0 <__do_global_dtors_aux+0x18>)
 800018c:	7823      	ldrb	r3, [r4, #0]
 800018e:	b933      	cbnz	r3, 800019e <__do_global_dtors_aux+0x16>
 8000190:	4b04      	ldr	r3, [pc, #16]	@ (80001a4 <__do_global_dtors_aux+0x1c>)
 8000192:	b113      	cbz	r3, 800019a <__do_global_dtors_aux+0x12>
 8000194:	4804      	ldr	r0, [pc, #16]	@ (80001a8 <__do_global_dtors_aux+0x20>)
 8000196:	f3af 8000 	nop.w
 800019a:	2301      	movs	r3, #1
 800019c:	7023      	strb	r3, [r4, #0]
 800019e:	bd10      	pop	{r4, pc}
 80001a0:	20000004 	.word	0x20000004
 80001a4:	00000000 	.word	0x00000000
 80001a8:	08003ecc 	.word	0x08003ecc

080001ac <frame_dummy>:
 80001ac:	b508      	push	{r3, lr}
 80001ae:	4b03      	ldr	r3, [pc, #12]	@ (80001bc <frame_dummy+0x10>)
 80001b0:	b11b      	cbz	r3, 80001ba <frame_dummy+0xe>
 80001b2:	4903      	ldr	r1, [pc, #12]	@ (80001c0 <frame_dummy+0x14>)
 80001b4:	4803      	ldr	r0, [pc, #12]	@ (80001c4 <frame_dummy+0x18>)
 80001b6:	f3af 8000 	nop.w
 80001ba:	bd08      	pop	{r3, pc}
 80001bc:	00000000 	.word	0x00000000
 80001c0:	20000008 	.word	0x20000008
 80001c4:	08003ecc 	.word	0x08003ecc

080001c8 <__aeabi_drsub>:
 80001c8:	f081 4100 	eor.w	r1, r1, #2147483648	@ 0x80000000
 80001cc:	e002      	b.n	80001d4 <__adddf3>
 80001ce:	bf00      	nop

080001d0 <__aeabi_dsub>:
 80001d0:	f083 4300 	eor.w	r3, r3, #2147483648	@ 0x80000000

080001d4 <__adddf3>:
 80001d4:	b530      	push	{r4, r5, lr}
 80001d6:	ea4f 0441 	mov.w	r4, r1, lsl #1
 80001da:	ea4f 0543 	mov.w	r5, r3, lsl #1
 80001de:	ea94 0f05 	teq	r4, r5
 80001e2:	bf08      	it	eq
 80001e4:	ea90 0f02 	teqeq	r0, r2
 80001e8:	bf1f      	itttt	ne
 80001ea:	ea54 0c00 	orrsne.w	ip, r4, r0
 80001ee:	ea55 0c02 	orrsne.w	ip, r5, r2
 80001f2:	ea7f 5c64 	mvnsne.w	ip, r4, asr #21
 80001f6:	ea7f 5c65 	mvnsne.w	ip, r5, asr #21
 80001fa:	f000 80e2 	beq.w	80003c2 <__adddf3+0x1ee>
 80001fe:	ea4f 5454 	mov.w	r4, r4, lsr #21
 8000202:	ebd4 5555 	rsbs	r5, r4, r5, lsr #21
 8000206:	bfb8      	it	lt
 8000208:	426d      	neglt	r5, r5
 800020a:	dd0c      	ble.n	8000226 <__adddf3+0x52>
 800020c:	442c      	add	r4, r5
 800020e:	ea80 0202 	eor.w	r2, r0, r2
 8000212:	ea81 0303 	eor.w	r3, r1, r3
 8000216:	ea82 0000 	eor.w	r0, r2, r0
 800021a:	ea83 0101 	eor.w	r1, r3, r1
 800021e:	ea80 0202 	eor.w	r2, r0, r2
 8000222:	ea81 0303 	eor.w	r3, r1, r3
 8000226:	2d36      	cmp	r5, #54	@ 0x36
 8000228:	bf88      	it	hi
 800022a:	bd30      	pophi	{r4, r5, pc}
 800022c:	f011 4f00 	tst.w	r1, #2147483648	@ 0x80000000
 8000230:	ea4f 3101 	mov.w	r1, r1, lsl #12
 8000234:	f44f 1c80 	mov.w	ip, #1048576	@ 0x100000
 8000238:	ea4c 3111 	orr.w	r1, ip, r1, lsr #12
 800023c:	d002      	beq.n	8000244 <__adddf3+0x70>
 800023e:	4240      	negs	r0, r0
 8000240:	eb61 0141 	sbc.w	r1, r1, r1, lsl #1
 8000244:	f013 4f00 	tst.w	r3, #2147483648	@ 0x80000000
 8000248:	ea4f 3303 	mov.w	r3, r3, lsl #12
 800024c:	ea4c 3313 	orr.w	r3, ip, r3, lsr #12
 8000250:	d002      	beq.n	8000258 <__adddf3+0x84>
 8000252:	4252      	negs	r2, r2
 8000254:	eb63 0343 	sbc.w	r3, r3, r3, lsl #1
 8000258:	ea94 0f05 	teq	r4, r5
 800025c:	f000 80a7 	beq.w	80003ae <__adddf3+0x1da>
 8000260:	f1a4 0401 	sub.w	r4, r4, #1
 8000264:	f1d5 0e20 	rsbs	lr, r5, #32
 8000268:	db0d      	blt.n	8000286 <__adddf3+0xb2>
 800026a:	fa02 fc0e 	lsl.w	ip, r2, lr
 800026e:	fa22 f205 	lsr.w	r2, r2, r5
 8000272:	1880      	adds	r0, r0, r2
 8000274:	f141 0100 	adc.w	r1, r1, #0
 8000278:	fa03 f20e 	lsl.w	r2, r3, lr
 800027c:	1880      	adds	r0, r0, r2
 800027e:	fa43 f305 	asr.w	r3, r3, r5
 8000282:	4159      	adcs	r1, r3
 8000284:	e00e      	b.n	80002a4 <__adddf3+0xd0>
 8000286:	f1a5 0520 	sub.w	r5, r5, #32
 800028a:	f10e 0e20 	add.w	lr, lr, #32
 800028e:	2a01      	cmp	r2, #1
 8000290:	fa03 fc0e 	lsl.w	ip, r3, lr
 8000294:	bf28      	it	cs
 8000296:	f04c 0c02 	orrcs.w	ip, ip, #2
 800029a:	fa43 f305 	asr.w	r3, r3, r5
 800029e:	18c0      	adds	r0, r0, r3
 80002a0:	eb51 71e3 	adcs.w	r1, r1, r3, asr #31
 80002a4:	f001 4500 	and.w	r5, r1, #2147483648	@ 0x80000000
 80002a8:	d507      	bpl.n	80002ba <__adddf3+0xe6>
 80002aa:	f04f 0e00 	mov.w	lr, #0
 80002ae:	f1dc 0c00 	rsbs	ip, ip, #0
 80002b2:	eb7e 0000 	sbcs.w	r0, lr, r0
 80002b6:	eb6e 0101 	sbc.w	r1, lr, r1
 80002ba:	f5b1 1f80 	cmp.w	r1, #1048576	@ 0x100000
 80002be:	d31b      	bcc.n	80002f8 <__adddf3+0x124>
 80002c0:	f5b1 1f00 	cmp.w	r1, #2097152	@ 0x200000
 80002c4:	d30c      	bcc.n	80002e0 <__adddf3+0x10c>
 80002c6:	0849      	lsrs	r1, r1, #1
 80002c8:	ea5f 0030 	movs.w	r0, r0, rrx
 80002cc:	ea4f 0c3c 	mov.w	ip, ip, rrx
 80002d0:	f104 0401 	add.w	r4, r4, #1
 80002d4:	ea4f 5244 	mov.w	r2, r4, lsl #21
 80002d8:	f512 0f80 	cmn.w	r2, #4194304	@ 0x400000
 80002dc:	f080 809a 	bcs.w	8000414 <__adddf3+0x240>
 80002e0:	f1bc 4f00 	cmp.w	ip, #2147483648	@ 0x80000000
 80002e4:	bf08      	it	eq
 80002e6:	ea5f 0c50 	movseq.w	ip, r0, lsr #1
 80002ea:	f150 0000 	adcs.w	r0, r0, #0
 80002ee:	eb41 5104 	adc.w	r1, r1, r4, lsl #20
 80002f2:	ea41 0105 	orr.w	r1, r1, r5
 80002f6:	bd30      	pop	{r4, r5, pc}
 80002f8:	ea5f 0c4c 	movs.w	ip, ip, lsl #1
 80002fc:	4140      	adcs	r0, r0
 80002fe:	eb41 0101 	adc.w	r1, r1, r1
 8000302:	3c01      	subs	r4, #1
 8000304:	bf28      	it	cs
 8000306:	f5b1 1f80 	cmpcs.w	r1, #1048576	@ 0x100000
 800030a:	d2e9      	bcs.n	80002e0 <__adddf3+0x10c>
 800030c:	f091 0f00 	teq	r1, #0
 8000310:	bf04      	itt	eq
 8000312:	4601      	moveq	r1, r0
 8000314:	2000      	moveq	r0, #0
 8000316:	fab1 f381 	clz	r3, r1
 800031a:	bf08      	it	eq
 800031c:	3320      	addeq	r3, #32
 800031e:	f1a3 030b 	sub.w	r3, r3, #11
 8000322:	f1b3 0220 	subs.w	r2, r3, #32
 8000326:	da0c      	bge.n	8000342 <__adddf3+0x16e>
 8000328:	320c      	adds	r2, #12
 800032a:	dd08      	ble.n	800033e <__adddf3+0x16a>
 800032c:	f102 0c14 	add.w	ip, r2, #20
 8000330:	f1c2 020c 	rsb	r2, r2, #12
 8000334:	fa01 f00c 	lsl.w	r0, r1, ip
 8000338:	fa21 f102 	lsr.w	r1, r1, r2
 800033c:	e00c      	b.n	8000358 <__adddf3+0x184>
 800033e:	f102 0214 	add.w	r2, r2, #20
 8000342:	bfd8      	it	le
 8000344:	f1c2 0c20 	rsble	ip, r2, #32
 8000348:	fa01 f102 	lsl.w	r1, r1, r2
 800034c:	fa20 fc0c 	lsr.w	ip, r0, ip
 8000350:	bfdc      	itt	le
 8000352:	ea41 010c 	orrle.w	r1, r1, ip
 8000356:	4090      	lslle	r0, r2
 8000358:	1ae4      	subs	r4, r4, r3
 800035a:	bfa2      	ittt	ge
 800035c:	eb01 5104 	addge.w	r1, r1, r4, lsl #20
 8000360:	4329      	orrge	r1, r5
 8000362:	bd30      	popge	{r4, r5, pc}
 8000364:	ea6f 0404 	mvn.w	r4, r4
 8000368:	3c1f      	subs	r4, #31
 800036a:	da1c      	bge.n	80003a6 <__adddf3+0x1d2>
 800036c:	340c      	adds	r4, #12
 800036e:	dc0e      	bgt.n	800038e <__adddf3+0x1ba>
 8000370:	f104 0414 	add.w	r4, r4, #20
 8000374:	f1c4 0220 	rsb	r2, r4, #32
 8000378:	fa20 f004 	lsr.w	r0, r0, r4
 800037c:	fa01 f302 	lsl.w	r3, r1, r2
 8000380:	ea40 0003 	orr.w	r0, r0, r3
 8000384:	fa21 f304 	lsr.w	r3, r1, r4
 8000388:	ea45 0103 	orr.w	r1, r5, r3
 800038c:	bd30      	pop	{r4, r5, pc}
 800038e:	f1c4 040c 	rsb	r4, r4, #12
 8000392:	f1c4 0220 	rsb	r2, r4, #32
 8000396:	fa20 f002 	lsr.w	r0, r0, r2
 800039a:	fa01 f304 	lsl.w	r3, r1, r4
 800039e:	ea40 0003 	orr.w	r0, r0, r3
 80003a2:	4629      	mov	r1, r5
 80003a4:	bd30      	pop	{r4, r5, pc}
 80003a6:	fa21 f004 	lsr.w	r0, r1, r4
 80003aa:	4629      	mov	r1, r5
 80003ac:	bd30      	pop	{r4, r5, pc}
 80003ae:	f094 0f00 	teq	r4, #0
 80003b2:	f483 1380 	eor.w	r3, r3, #1048576	@ 0x100000
 80003b6:	bf06      	itte	eq
 80003b8:	f481 1180 	eoreq.w	r1, r1, #1048576	@ 0x100000
 80003bc:	3401      	addeq	r4, #1
 80003be:	3d01      	subne	r5, #1
 80003c0:	e74e      	b.n	8000260 <__adddf3+0x8c>
 80003c2:	ea7f 5c64 	mvns.w	ip, r4, asr #21
 80003c6:	bf18      	it	ne
 80003c8:	ea7f 5c65 	mvnsne.w	ip, r5, asr #21
 80003cc:	d029      	beq.n	8000422 <__adddf3+0x24e>
 80003ce:	ea94 0f05 	teq	r4, r5
 80003d2:	bf08      	it	eq
 80003d4:	ea90 0f02 	teqeq	r0, r2
 80003d8:	d005      	beq.n	80003e6 <__adddf3+0x212>
 80003da:	ea54 0c00 	orrs.w	ip, r4, r0
 80003de:	bf04      	itt	eq
 80003e0:	4619      	moveq	r1, r3
 80003e2:	4610      	moveq	r0, r2
 80003e4:	bd30      	pop	{r4, r5, pc}
 80003e6:	ea91 0f03 	teq	r1, r3
 80003ea:	bf1e      	ittt	ne
 80003ec:	2100      	movne	r1, #0
 80003ee:	2000      	movne	r0, #0
 80003f0:	bd30      	popne	{r4, r5, pc}
 80003f2:	ea5f 5c54 	movs.w	ip, r4, lsr #21
 80003f6:	d105      	bne.n	8000404 <__adddf3+0x230>
 80003f8:	0040      	lsls	r0, r0, #1
 80003fa:	4149      	adcs	r1, r1
 80003fc:	bf28      	it	cs
 80003fe:	f041 4100 	orrcs.w	r1, r1, #2147483648	@ 0x80000000
 8000402:	bd30      	pop	{r4, r5, pc}
 8000404:	f514 0480 	adds.w	r4, r4, #4194304	@ 0x400000
 8000408:	bf3c      	itt	cc
 800040a:	f501 1180 	addcc.w	r1, r1, #1048576	@ 0x100000
 800040e:	bd30      	popcc	{r4, r5, pc}
 8000410:	f001 4500 	and.w	r5, r1, #2147483648	@ 0x80000000
 8000414:	f045 41fe 	orr.w	r1, r5, #2130706432	@ 0x7f000000
 8000418:	f441 0170 	orr.w	r1, r1, #15728640	@ 0xf00000
 800041c:	f04f 0000 	mov.w	r0, #0
 8000420:	bd30      	pop	{r4, r5, pc}
 8000422:	ea7f 5c64 	mvns.w	ip, r4, asr #21
 8000426:	bf1a      	itte	ne
 8000428:	4619      	movne	r1, r3
 800042a:	4610      	movne	r0, r2
 800042c:	ea7f 5c65 	mvnseq.w	ip, r5, asr #21
 8000430:	bf1c      	itt	ne
 8000432:	460b      	movne	r3, r1
 8000434:	4602      	movne	r2, r0
 8000436:	ea50 3401 	orrs.w	r4, r0, r1, lsl #12
 800043a:	bf06      	itte	eq
 800043c:	ea52 3503 	orrseq.w	r5, r2, r3, lsl #12
 8000440:	ea91 0f03 	teqeq	r1, r3
 8000444:	f441 2100 	orrne.w	r1, r1, #524288	@ 0x80000
 8000448:	bd30      	pop	{r4, r5, pc}
 800044a:	bf00      	nop

0800044c <__aeabi_ui2d>:
 800044c:	f090 0f00 	teq	r0, #0
 8000450:	bf04      	itt	eq
 8000452:	2100      	moveq	r1, #0
 8000454:	4770      	bxeq	lr
 8000456:	b530      	push	{r4, r5, lr}
 8000458:	f44f 6480 	mov.w	r4, #1024	@ 0x400
 800045c:	f104 0432 	add.w	r4, r4, #50	@ 0x32
 8000460:	f04f 0500 	mov.w	r5, #0
 8000464:	f04f 0100 	mov.w	r1, #0
 8000468:	e750      	b.n	800030c <__adddf3+0x138>
 800046a:	bf00      	nop

0800046c <__aeabi_i2d>:
 800046c:	f090 0f00 	teq	r0, #0
 8000470:	bf04      	itt	eq
 8000472:	2100      	moveq	r1, #0
 8000474:	4770      	bxeq	lr
 8000476:	b530      	push	{r4, r5, lr}
 8000478:	f44f 6480 	mov.w	r4, #1024	@ 0x400
 800047c:	f104 0432 	add.w	r4, r4, #50	@ 0x32
 8000480:	f010 4500 	ands.w	r5, r0, #2147483648	@ 0x80000000
 8000484:	bf48      	it	mi
 8000486:	4240      	negmi	r0, r0
 8000488:	f04f 0100 	mov.w	r1, #0
 800048c:	e73e      	b.n	800030c <__adddf3+0x138>
 800048e:	bf00      	nop

08000490 <__aeabi_f2d>:
 8000490:	0042      	lsls	r2, r0, #1
 8000492:	ea4f 01e2 	mov.w	r1, r2, asr #3
 8000496:	ea4f 0131 	mov.w	r1, r1, rrx
 800049a:	ea4f 7002 	mov.w	r0, r2, lsl #28
 800049e:	bf1f      	itttt	ne
 80004a0:	f012 437f 	andsne.w	r3, r2, #4278190080	@ 0xff000000
 80004a4:	f093 4f7f 	teqne	r3, #4278190080	@ 0xff000000
 80004a8:	f081 5160 	eorne.w	r1, r1, #939524096	@ 0x38000000
 80004ac:	4770      	bxne	lr
 80004ae:	f032 427f 	bics.w	r2, r2, #4278190080	@ 0xff000000
 80004b2:	bf08      	it	eq
 80004b4:	4770      	bxeq	lr
 80004b6:	f093 4f7f 	teq	r3, #4278190080	@ 0xff000000
 80004ba:	bf04      	itt	eq
 80004bc:	f441 2100 	orreq.w	r1, r1, #524288	@ 0x80000
 80004c0:	4770      	bxeq	lr
 80004c2:	b530      	push	{r4, r5, lr}
 80004c4:	f44f 7460 	mov.w	r4, #896	@ 0x380
 80004c8:	f001 4500 	and.w	r5, r1, #2147483648	@ 0x80000000
 80004cc:	f021 4100 	bic.w	r1, r1, #2147483648	@ 0x80000000
 80004d0:	e71c      	b.n	800030c <__adddf3+0x138>
 80004d2:	bf00      	nop

080004d4 <__aeabi_ul2d>:
 80004d4:	ea50 0201 	orrs.w	r2, r0, r1
 80004d8:	bf08      	it	eq
 80004da:	4770      	bxeq	lr
 80004dc:	b530      	push	{r4, r5, lr}
 80004de:	f04f 0500 	mov.w	r5, #0
 80004e2:	e00a      	b.n	80004fa <__aeabi_l2d+0x16>

080004e4 <__aeabi_l2d>:
 80004e4:	ea50 0201 	orrs.w	r2, r0, r1
 80004e8:	bf08      	it	eq
 80004ea:	4770      	bxeq	lr
 80004ec:	b530      	push	{r4, r5, lr}
 80004ee:	f011 4500 	ands.w	r5, r1, #2147483648	@ 0x80000000
 80004f2:	d502      	bpl.n	80004fa <__aeabi_l2d+0x16>
 80004f4:	4240      	negs	r0, r0
 80004f6:	eb61 0141 	sbc.w	r1, r1, r1, lsl #1
 80004fa:	f44f 6480 	mov.w	r4, #1024	@ 0x400
 80004fe:	f104 0432 	add.w	r4, r4, #50	@ 0x32
 8000502:	ea5f 5c91 	movs.w	ip, r1, lsr #22
 8000506:	f43f aed8 	beq.w	80002ba <__adddf3+0xe6>
 800050a:	f04f 0203 	mov.w	r2, #3
 800050e:	ea5f 0cdc 	movs.w	ip, ip, lsr #3
 8000512:	bf18      	it	ne
 8000514:	3203      	addne	r2, #3
 8000516:	ea5f 0cdc 	movs.w	ip, ip, lsr #3
 800051a:	bf18      	it	ne
 800051c:	3203      	addne	r2, #3
 800051e:	eb02 02dc 	add.w	r2, r2, ip, lsr #3
 8000522:	f1c2 0320 	rsb	r3, r2, #32
 8000526:	fa00 fc03 	lsl.w	ip, r0, r3
 800052a:	fa20 f002 	lsr.w	r0, r0, r2
 800052e:	fa01 fe03 	lsl.w	lr, r1, r3
 8000532:	ea40 000e 	orr.w	r0, r0, lr
 8000536:	fa21 f102 	lsr.w	r1, r1, r2
 800053a:	4414      	add	r4, r2
 800053c:	e6bd      	b.n	80002ba <__adddf3+0xe6>
 800053e:	bf00      	nop

08000540 <__aeabi_dmul>:
 8000540:	b570      	push	{r4, r5, r6, lr}
 8000542:	f04f 0cff 	mov.w	ip, #255	@ 0xff
 8000546:	f44c 6ce0 	orr.w	ip, ip, #1792	@ 0x700
 800054a:	ea1c 5411 	ands.w	r4, ip, r1, lsr #20
 800054e:	bf1d      	ittte	ne
 8000550:	ea1c 5513 	andsne.w	r5, ip, r3, lsr #20
 8000554:	ea94 0f0c 	teqne	r4, ip
 8000558:	ea95 0f0c 	teqne	r5, ip
 800055c:	f000 f8de 	bleq	800071c <__aeabi_dmul+0x1dc>
 8000560:	442c      	add	r4, r5
 8000562:	ea81 0603 	eor.w	r6, r1, r3
 8000566:	ea21 514c 	bic.w	r1, r1, ip, lsl #21
 800056a:	ea23 534c 	bic.w	r3, r3, ip, lsl #21
 800056e:	ea50 3501 	orrs.w	r5, r0, r1, lsl #12
 8000572:	bf18      	it	ne
 8000574:	ea52 3503 	orrsne.w	r5, r2, r3, lsl #12
 8000578:	f441 1180 	orr.w	r1, r1, #1048576	@ 0x100000
 800057c:	f443 1380 	orr.w	r3, r3, #1048576	@ 0x100000
 8000580:	d038      	beq.n	80005f4 <__aeabi_dmul+0xb4>
 8000582:	fba0 ce02 	umull	ip, lr, r0, r2
 8000586:	f04f 0500 	mov.w	r5, #0
 800058a:	fbe1 e502 	umlal	lr, r5, r1, r2
 800058e:	f006 4200 	and.w	r2, r6, #2147483648	@ 0x80000000
 8000592:	fbe0 e503 	umlal	lr, r5, r0, r3
 8000596:	f04f 0600 	mov.w	r6, #0
 800059a:	fbe1 5603 	umlal	r5, r6, r1, r3
 800059e:	f09c 0f00 	teq	ip, #0
 80005a2:	bf18      	it	ne
 80005a4:	f04e 0e01 	orrne.w	lr, lr, #1
 80005a8:	f1a4 04ff 	sub.w	r4, r4, #255	@ 0xff
 80005ac:	f5b6 7f00 	cmp.w	r6, #512	@ 0x200
 80005b0:	f564 7440 	sbc.w	r4, r4, #768	@ 0x300
 80005b4:	d204      	bcs.n	80005c0 <__aeabi_dmul+0x80>
 80005b6:	ea5f 0e4e 	movs.w	lr, lr, lsl #1
 80005ba:	416d      	adcs	r5, r5
 80005bc:	eb46 0606 	adc.w	r6, r6, r6
 80005c0:	ea42 21c6 	orr.w	r1, r2, r6, lsl #11
 80005c4:	ea41 5155 	orr.w	r1, r1, r5, lsr #21
 80005c8:	ea4f 20c5 	mov.w	r0, r5, lsl #11
 80005cc:	ea40 505e 	orr.w	r0, r0, lr, lsr #21
 80005d0:	ea4f 2ece 	mov.w	lr, lr, lsl #11
 80005d4:	f1b4 0cfd 	subs.w	ip, r4, #253	@ 0xfd
 80005d8:	bf88      	it	hi
 80005da:	f5bc 6fe0 	cmphi.w	ip, #1792	@ 0x700
 80005de:	d81e      	bhi.n	800061e <__aeabi_dmul+0xde>
 80005e0:	f1be 4f00 	cmp.w	lr, #2147483648	@ 0x80000000
 80005e4:	bf08      	it	eq
 80005e6:	ea5f 0e50 	movseq.w	lr, r0, lsr #1
 80005ea:	f150 0000 	adcs.w	r0, r0, #0
 80005ee:	eb41 5104 	adc.w	r1, r1, r4, lsl #20
 80005f2:	bd70      	pop	{r4, r5, r6, pc}
 80005f4:	f006 4600 	and.w	r6, r6, #2147483648	@ 0x80000000
 80005f8:	ea46 0101 	orr.w	r1, r6, r1
 80005fc:	ea40 0002 	orr.w	r0, r0, r2
 8000600:	ea81 0103 	eor.w	r1, r1, r3
 8000604:	ebb4 045c 	subs.w	r4, r4, ip, lsr #1
 8000608:	bfc2      	ittt	gt
 800060a:	ebd4 050c 	rsbsgt	r5, r4, ip
 800060e:	ea41 5104 	orrgt.w	r1, r1, r4, lsl #20
 8000612:	bd70      	popgt	{r4, r5, r6, pc}
 8000614:	f441 1180 	orr.w	r1, r1, #1048576	@ 0x100000
 8000618:	f04f 0e00 	mov.w	lr, #0
 800061c:	3c01      	subs	r4, #1
 800061e:	f300 80ab 	bgt.w	8000778 <__aeabi_dmul+0x238>
 8000622:	f114 0f36 	cmn.w	r4, #54	@ 0x36
 8000626:	bfde      	ittt	le
 8000628:	2000      	movle	r0, #0
 800062a:	f001 4100 	andle.w	r1, r1, #2147483648	@ 0x80000000
 800062e:	bd70      	pople	{r4, r5, r6, pc}
 8000630:	f1c4 0400 	rsb	r4, r4, #0
 8000634:	3c20      	subs	r4, #32
 8000636:	da35      	bge.n	80006a4 <__aeabi_dmul+0x164>
 8000638:	340c      	adds	r4, #12
 800063a:	dc1b      	bgt.n	8000674 <__aeabi_dmul+0x134>
 800063c:	f104 0414 	add.w	r4, r4, #20
 8000640:	f1c4 0520 	rsb	r5, r4, #32
 8000644:	fa00 f305 	lsl.w	r3, r0, r5
 8000648:	fa20 f004 	lsr.w	r0, r0, r4
 800064c:	fa01 f205 	lsl.w	r2, r1, r5
 8000650:	ea40 0002 	orr.w	r0, r0, r2
 8000654:	f001 4200 	and.w	r2, r1, #2147483648	@ 0x80000000
 8000658:	f021 4100 	bic.w	r1, r1, #2147483648	@ 0x80000000
 800065c:	eb10 70d3 	adds.w	r0, r0, r3, lsr #31
 8000660:	fa21 f604 	lsr.w	r6, r1, r4
 8000664:	eb42 0106 	adc.w	r1, r2, r6
 8000668:	ea5e 0e43 	orrs.w	lr, lr, r3, lsl #1
 800066c:	bf08      	it	eq
 800066e:	ea20 70d3 	biceq.w	r0, r0, r3, lsr #31
 8000672:	bd70      	pop	{r4, r5, r6, pc}
 8000674:	f1c4 040c 	rsb	r4, r4, #12
 8000678:	f1c4 0520 	rsb	r5, r4, #32
 800067c:	fa00 f304 	lsl.w	r3, r0, r4
 8000680:	fa20 f005 	lsr.w	r0, r0, r5
 8000684:	fa01 f204 	lsl.w	r2, r1, r4
 8000688:	ea40 0002 	orr.w	r0, r0, r2
 800068c:	f001 4100 	and.w	r1, r1, #2147483648	@ 0x80000000
 8000690:	eb10 70d3 	adds.w	r0, r0, r3, lsr #31
 8000694:	f141 0100 	adc.w	r1, r1, #0
 8000698:	ea5e 0e43 	orrs.w	lr, lr, r3, lsl #1
 800069c:	bf08      	it	eq
 800069e:	ea20 70d3 	biceq.w	r0, r0, r3, lsr #31
 80006a2:	bd70      	pop	{r4, r5, r6, pc}
 80006a4:	f1c4 0520 	rsb	r5, r4, #32
 80006a8:	fa00 f205 	lsl.w	r2, r0, r5
 80006ac:	ea4e 0e02 	orr.w	lr, lr, r2
 80006b0:	fa20 f304 	lsr.w	r3, r0, r4
 80006b4:	fa01 f205 	lsl.w	r2, r1, r5
 80006b8:	ea43 0302 	orr.w	r3, r3, r2
 80006bc:	fa21 f004 	lsr.w	r0, r1, r4
 80006c0:	f001 4100 	and.w	r1, r1, #2147483648	@ 0x80000000
 80006c4:	fa21 f204 	lsr.w	r2, r1, r4
 80006c8:	ea20 0002 	bic.w	r0, r0, r2
 80006cc:	eb00 70d3 	add.w	r0, r0, r3, lsr #31
 80006d0:	ea5e 0e43 	orrs.w	lr, lr, r3, lsl #1
 80006d4:	bf08      	it	eq
 80006d6:	ea20 70d3 	biceq.w	r0, r0, r3, lsr #31
 80006da:	bd70      	pop	{r4, r5, r6, pc}
 80006dc:	f094 0f00 	teq	r4, #0
 80006e0:	d10f      	bne.n	8000702 <__aeabi_dmul+0x1c2>
 80006e2:	f001 4600 	and.w	r6, r1, #2147483648	@ 0x80000000
 80006e6:	0040      	lsls	r0, r0, #1
 80006e8:	eb41 0101 	adc.w	r1, r1, r1
 80006ec:	f411 1f80 	tst.w	r1, #1048576	@ 0x100000
 80006f0:	bf08      	it	eq
 80006f2:	3c01      	subeq	r4, #1
 80006f4:	d0f7      	beq.n	80006e6 <__aeabi_dmul+0x1a6>
 80006f6:	ea41 0106 	orr.w	r1, r1, r6
 80006fa:	f095 0f00 	teq	r5, #0
 80006fe:	bf18      	it	ne
 8000700:	4770      	bxne	lr
 8000702:	f003 4600 	and.w	r6, r3, #2147483648	@ 0x80000000
 8000706:	0052      	lsls	r2, r2, #1
 8000708:	eb43 0303 	adc.w	r3, r3, r3
 800070c:	f413 1f80 	tst.w	r3, #1048576	@ 0x100000
 8000710:	bf08      	it	eq
 8000712:	3d01      	subeq	r5, #1
 8000714:	d0f7      	beq.n	8000706 <__aeabi_dmul+0x1c6>
 8000716:	ea43 0306 	orr.w	r3, r3, r6
 800071a:	4770      	bx	lr
 800071c:	ea94 0f0c 	teq	r4, ip
 8000720:	ea0c 5513 	and.w	r5, ip, r3, lsr #20
 8000724:	bf18      	it	ne
 8000726:	ea95 0f0c 	teqne	r5, ip
 800072a:	d00c      	beq.n	8000746 <__aeabi_dmul+0x206>
 800072c:	ea50 0641 	orrs.w	r6, r0, r1, lsl #1
 8000730:	bf18      	it	ne
 8000732:	ea52 0643 	orrsne.w	r6, r2, r3, lsl #1
 8000736:	d1d1      	bne.n	80006dc <__aeabi_dmul+0x19c>
 8000738:	ea81 0103 	eor.w	r1, r1, r3
 800073c:	f001 4100 	and.w	r1, r1, #2147483648	@ 0x80000000
 8000740:	f04f 0000 	mov.w	r0, #0
 8000744:	bd70      	pop	{r4, r5, r6, pc}
 8000746:	ea50 0641 	orrs.w	r6, r0, r1, lsl #1
 800074a:	bf06      	itte	eq
 800074c:	4610      	moveq	r0, r2
 800074e:	4619      	moveq	r1, r3
 8000750:	ea52 0643 	orrsne.w	r6, r2, r3, lsl #1
 8000754:	d019      	beq.n	800078a <__aeabi_dmul+0x24a>
 8000756:	ea94 0f0c 	teq	r4, ip
 800075a:	d102      	bne.n	8000762 <__aeabi_dmul+0x222>
 800075c:	ea50 3601 	orrs.w	r6, r0, r1, lsl #12
 8000760:	d113      	bne.n	800078a <__aeabi_dmul+0x24a>
 8000762:	ea95 0f0c 	teq	r5, ip
 8000766:	d105      	bne.n	8000774 <__aeabi_dmul+0x234>
 8000768:	ea52 3603 	orrs.w	r6, r2, r3, lsl #12
 800076c:	bf1c      	itt	ne
 800076e:	4610      	movne	r0, r2
 8000770:	4619      	movne	r1, r3
 8000772:	d10a      	bne.n	800078a <__aeabi_dmul+0x24a>
 8000774:	ea81 0103 	eor.w	r1, r1, r3
 8000778:	f001 4100 	and.w	r1, r1, #2147483648	@ 0x80000000
 800077c:	f041 41fe 	orr.w	r1, r1, #2130706432	@ 0x7f000000
 8000780:	f441 0170 	orr.w	r1, r1, #15728640	@ 0xf00000
 8000784:	f04f 0000 	mov.w	r0, #0
 8000788:	bd70      	pop	{r4, r5, r6, pc}
 800078a:	f041 41fe 	orr.w	r1, r1, #2130706432	@ 0x7f000000
 800078e:	f441 0178 	orr.w	r1, r1, #16252928	@ 0xf80000
 8000792:	bd70      	pop	{r4, r5, r6, pc}

08000794 <__aeabi_ddiv>:
 8000794:	b570      	push	{r4, r5, r6, lr}
 8000796:	f04f 0cff 	mov.w	ip, #255	@ 0xff
 800079a:	f44c 6ce0 	orr.w	ip, ip, #1792	@ 0x700
 800079e:	ea1c 5411 	ands.w	r4, ip, r1, lsr #20
 80007a2:	bf1d      	ittte	ne
 80007a4:	ea1c 5513 	andsne.w	r5, ip, r3, lsr #20
 80007a8:	ea94 0f0c 	teqne	r4, ip
 80007ac:	ea95 0f0c 	teqne	r5, ip
 80007b0:	f000 f8a7 	bleq	8000902 <__aeabi_ddiv+0x16e>
 80007b4:	eba4 0405 	sub.w	r4, r4, r5
 80007b8:	ea81 0e03 	eor.w	lr, r1, r3
 80007bc:	ea52 3503 	orrs.w	r5, r2, r3, lsl #12
 80007c0:	ea4f 3101 	mov.w	r1, r1, lsl #12
 80007c4:	f000 8088 	beq.w	80008d8 <__aeabi_ddiv+0x144>
 80007c8:	ea4f 3303 	mov.w	r3, r3, lsl #12
 80007cc:	f04f 5580 	mov.w	r5, #268435456	@ 0x10000000
 80007d0:	ea45 1313 	orr.w	r3, r5, r3, lsr #4
 80007d4:	ea43 6312 	orr.w	r3, r3, r2, lsr #24
 80007d8:	ea4f 2202 	mov.w	r2, r2, lsl #8
 80007dc:	ea45 1511 	orr.w	r5, r5, r1, lsr #4
 80007e0:	ea45 6510 	orr.w	r5, r5, r0, lsr #24
 80007e4:	ea4f 2600 	mov.w	r6, r0, lsl #8
 80007e8:	f00e 4100 	and.w	r1, lr, #2147483648	@ 0x80000000
 80007ec:	429d      	cmp	r5, r3
 80007ee:	bf08      	it	eq
 80007f0:	4296      	cmpeq	r6, r2
 80007f2:	f144 04fd 	adc.w	r4, r4, #253	@ 0xfd
 80007f6:	f504 7440 	add.w	r4, r4, #768	@ 0x300
 80007fa:	d202      	bcs.n	8000802 <__aeabi_ddiv+0x6e>
 80007fc:	085b      	lsrs	r3, r3, #1
 80007fe:	ea4f 0232 	mov.w	r2, r2, rrx
 8000802:	1ab6      	subs	r6, r6, r2
 8000804:	eb65 0503 	sbc.w	r5, r5, r3
 8000808:	085b      	lsrs	r3, r3, #1
 800080a:	ea4f 0232 	mov.w	r2, r2, rrx
 800080e:	f44f 1080 	mov.w	r0, #1048576	@ 0x100000
 8000812:	f44f 2c00 	mov.w	ip, #524288	@ 0x80000
 8000816:	ebb6 0e02 	subs.w	lr, r6, r2
 800081a:	eb75 0e03 	sbcs.w	lr, r5, r3
 800081e:	bf22      	ittt	cs
 8000820:	1ab6      	subcs	r6, r6, r2
 8000822:	4675      	movcs	r5, lr
 8000824:	ea40 000c 	orrcs.w	r0, r0, ip
 8000828:	085b      	lsrs	r3, r3, #1
 800082a:	ea4f 0232 	mov.w	r2, r2, rrx
 800082e:	ebb6 0e02 	subs.w	lr, r6, r2
 8000832:	eb75 0e03 	sbcs.w	lr, r5, r3
 8000836:	bf22      	ittt	cs
 8000838:	1ab6      	subcs	r6, r6, r2
 800083a:	4675      	movcs	r5, lr
 800083c:	ea40 005c 	orrcs.w	r0, r0, ip, lsr #1
 8000840:	085b      	lsrs	r3, r3, #1
 8000842:	ea4f 0232 	mov.w	r2, r2, rrx
 8000846:	ebb6 0e02 	subs.w	lr, r6, r2
 800084a:	eb75 0e03 	sbcs.w	lr, r5, r3
 800084e:	bf22      	ittt	cs
 8000850:	1ab6      	subcs	r6, r6, r2
 8000852:	4675      	movcs	r5, lr
 8000854:	ea40 009c 	orrcs.w	r0, r0, ip, lsr #2
 8000858:	085b      	lsrs	r3, r3, #1
 800085a:	ea4f 0232 	mov.w	r2, r2, rrx
 800085e:	ebb6 0e02 	subs.w	lr, r6, r2
 8000862:	eb75 0e03 	sbcs.w	lr, r5, r3
 8000866:	bf22      	ittt	cs
 8000868:	1ab6      	subcs	r6, r6, r2
 800086a:	4675      	movcs	r5, lr
 800086c:	ea40 00dc 	orrcs.w	r0, r0, ip, lsr #3
 8000870:	ea55 0e06 	orrs.w	lr, r5, r6
 8000874:	d018      	beq.n	80008a8 <__aeabi_ddiv+0x114>
 8000876:	ea4f 1505 	mov.w	r5, r5, lsl #4
 800087a:	ea45 7516 	orr.w	r5, r5, r6, lsr #28
 800087e:	ea4f 1606 	mov.w	r6, r6, lsl #4
 8000882:	ea4f 03c3 	mov.w	r3, r3, lsl #3
 8000886:	ea43 7352 	orr.w	r3, r3, r2, lsr #29
 800088a:	ea4f 02c2 	mov.w	r2, r2, lsl #3
 800088e:	ea5f 1c1c 	movs.w	ip, ip, lsr #4
 8000892:	d1c0      	bne.n	8000816 <__aeabi_ddiv+0x82>
 8000894:	f411 1f80 	tst.w	r1, #1048576	@ 0x100000
 8000898:	d10b      	bne.n	80008b2 <__aeabi_ddiv+0x11e>
 800089a:	ea41 0100 	orr.w	r1, r1, r0
 800089e:	f04f 0000 	mov.w	r0, #0
 80008a2:	f04f 4c00 	mov.w	ip, #2147483648	@ 0x80000000
 80008a6:	e7b6      	b.n	8000816 <__aeabi_ddiv+0x82>
 80008a8:	f411 1f80 	tst.w	r1, #1048576	@ 0x100000
 80008ac:	bf04      	itt	eq
 80008ae:	4301      	orreq	r1, r0
 80008b0:	2000      	moveq	r0, #0
 80008b2:	f1b4 0cfd 	subs.w	ip, r4, #253	@ 0xfd
 80008b6:	bf88      	it	hi
 80008b8:	f5bc 6fe0 	cmphi.w	ip, #1792	@ 0x700
 80008bc:	f63f aeaf 	bhi.w	800061e <__aeabi_dmul+0xde>
 80008c0:	ebb5 0c03 	subs.w	ip, r5, r3
 80008c4:	bf04      	itt	eq
 80008c6:	ebb6 0c02 	subseq.w	ip, r6, r2
 80008ca:	ea5f 0c50 	movseq.w	ip, r0, lsr #1
 80008ce:	f150 0000 	adcs.w	r0, r0, #0
 80008d2:	eb41 5104 	adc.w	r1, r1, r4, lsl #20
 80008d6:	bd70      	pop	{r4, r5, r6, pc}
 80008d8:	f00e 4e00 	and.w	lr, lr, #2147483648	@ 0x80000000
 80008dc:	ea4e 3111 	orr.w	r1, lr, r1, lsr #12
 80008e0:	eb14 045c 	adds.w	r4, r4, ip, lsr #1
 80008e4:	bfc2      	ittt	gt
 80008e6:	ebd4 050c 	rsbsgt	r5, r4, ip
 80008ea:	ea41 5104 	orrgt.w	r1, r1, r4, lsl #20
 80008ee:	bd70      	popgt	{r4, r5, r6, pc}
 80008f0:	f441 1180 	orr.w	r1, r1, #1048576	@ 0x100000
 80008f4:	f04f 0e00 	mov.w	lr, #0
 80008f8:	3c01      	subs	r4, #1
 80008fa:	e690      	b.n	800061e <__aeabi_dmul+0xde>
 80008fc:	ea45 0e06 	orr.w	lr, r5, r6
 8000900:	e68d      	b.n	800061e <__aeabi_dmul+0xde>
 8000902:	ea0c 5513 	and.w	r5, ip, r3, lsr #20
 8000906:	ea94 0f0c 	teq	r4, ip
 800090a:	bf08      	it	eq
 800090c:	ea95 0f0c 	teqeq	r5, ip
 8000910:	f43f af3b 	beq.w	800078a <__aeabi_dmul+0x24a>
 8000914:	ea94 0f0c 	teq	r4, ip
 8000918:	d10a      	bne.n	8000930 <__aeabi_ddiv+0x19c>
 800091a:	ea50 3401 	orrs.w	r4, r0, r1, lsl #12
 800091e:	f47f af34 	bne.w	800078a <__aeabi_dmul+0x24a>
 8000922:	ea95 0f0c 	teq	r5, ip
 8000926:	f47f af25 	bne.w	8000774 <__aeabi_dmul+0x234>
 800092a:	4610      	mov	r0, r2
 800092c:	4619      	mov	r1, r3
 800092e:	e72c      	b.n	800078a <__aeabi_dmul+0x24a>
 8000930:	ea95 0f0c 	teq	r5, ip
 8000934:	d106      	bne.n	8000944 <__aeabi_ddiv+0x1b0>
 8000936:	ea52 3503 	orrs.w	r5, r2, r3, lsl #12
 800093a:	f43f aefd 	beq.w	8000738 <__aeabi_dmul+0x1f8>
 800093e:	4610      	mov	r0, r2
 8000940:	4619      	mov	r1, r3
 8000942:	e722      	b.n	800078a <__aeabi_dmul+0x24a>
 8000944:	ea50 0641 	orrs.w	r6, r0, r1, lsl #1
 8000948:	bf18      	it	ne
 800094a:	ea52 0643 	orrsne.w	r6, r2, r3, lsl #1
 800094e:	f47f aec5 	bne.w	80006dc <__aeabi_dmul+0x19c>
 8000952:	ea50 0441 	orrs.w	r4, r0, r1, lsl #1
 8000956:	f47f af0d 	bne.w	8000774 <__aeabi_dmul+0x234>
 800095a:	ea52 0543 	orrs.w	r5, r2, r3, lsl #1
 800095e:	f47f aeeb 	bne.w	8000738 <__aeabi_dmul+0x1f8>
 8000962:	e712      	b.n	800078a <__aeabi_dmul+0x24a>

08000964 <__aeabi_d2f>:
 8000964:	ea4f 0241 	mov.w	r2, r1, lsl #1
 8000968:	f1b2 43e0 	subs.w	r3, r2, #1879048192	@ 0x70000000
 800096c:	bf24      	itt	cs
 800096e:	f5b3 1c00 	subscs.w	ip, r3, #2097152	@ 0x200000
 8000972:	f1dc 5cfe 	rsbscs	ip, ip, #532676608	@ 0x1fc00000
 8000976:	d90d      	bls.n	8000994 <__aeabi_d2f+0x30>
 8000978:	f001 4c00 	and.w	ip, r1, #2147483648	@ 0x80000000
 800097c:	ea4f 02c0 	mov.w	r2, r0, lsl #3
 8000980:	ea4c 7050 	orr.w	r0, ip, r0, lsr #29
 8000984:	f1b2 4f00 	cmp.w	r2, #2147483648	@ 0x80000000
 8000988:	eb40 0083 	adc.w	r0, r0, r3, lsl #2
 800098c:	bf08      	it	eq
 800098e:	f020 0001 	biceq.w	r0, r0, #1
 8000992:	4770      	bx	lr
 8000994:	f011 4f80 	tst.w	r1, #1073741824	@ 0x40000000
 8000998:	d121      	bne.n	80009de <__aeabi_d2f+0x7a>
 800099a:	f113 7238 	adds.w	r2, r3, #48234496	@ 0x2e00000
 800099e:	bfbc      	itt	lt
 80009a0:	f001 4000 	andlt.w	r0, r1, #2147483648	@ 0x80000000
 80009a4:	4770      	bxlt	lr
 80009a6:	f441 1180 	orr.w	r1, r1, #1048576	@ 0x100000
 80009aa:	ea4f 5252 	mov.w	r2, r2, lsr #21
 80009ae:	f1c2 0218 	rsb	r2, r2, #24
 80009b2:	f1c2 0c20 	rsb	ip, r2, #32
 80009b6:	fa10 f30c 	lsls.w	r3, r0, ip
 80009ba:	fa20 f002 	lsr.w	r0, r0, r2
 80009be:	bf18      	it	ne
 80009c0:	f040 0001 	orrne.w	r0, r0, #1
 80009c4:	ea4f 23c1 	mov.w	r3, r1, lsl #11
 80009c8:	ea4f 23d3 	mov.w	r3, r3, lsr #11
 80009cc:	fa03 fc0c 	lsl.w	ip, r3, ip
 80009d0:	ea40 000c 	orr.w	r0, r0, ip
 80009d4:	fa23 f302 	lsr.w	r3, r3, r2
 80009d8:	ea4f 0343 	mov.w	r3, r3, lsl #1
 80009dc:	e7cc      	b.n	8000978 <__aeabi_d2f+0x14>
 80009de:	ea7f 5362 	mvns.w	r3, r2, asr #21
 80009e2:	d107      	bne.n	80009f4 <__aeabi_d2f+0x90>
 80009e4:	ea50 3301 	orrs.w	r3, r0, r1, lsl #12
 80009e8:	bf1e      	ittt	ne
 80009ea:	f04f 40fe 	movne.w	r0, #2130706432	@ 0x7f000000
 80009ee:	f440 0040 	orrne.w	r0, r0, #12582912	@ 0xc00000
 80009f2:	4770      	bxne	lr
 80009f4:	f001 4000 	and.w	r0, r1, #2147483648	@ 0x80000000
 80009f8:	f040 40fe 	orr.w	r0, r0, #2130706432	@ 0x7f000000
 80009fc:	f440 0000 	orr.w	r0, r0, #8388608	@ 0x800000
 8000a00:	4770      	bx	lr
 8000a02:	bf00      	nop

08000a04 <__NVIC_EnableIRQ>:
  \details Enables a device specific interrupt in the NVIC interrupt controller.
  \param [in]      IRQn  Device specific interrupt number.
  \note    IRQn must not be negative.
 */
__STATIC_INLINE void __NVIC_EnableIRQ(IRQn_Type IRQn)
{
 8000a04:	b480      	push	{r7}
 8000a06:	b083      	sub	sp, #12
 8000a08:	af00      	add	r7, sp, #0
 8000a0a:	4603      	mov	r3, r0
 8000a0c:	71fb      	strb	r3, [r7, #7]
  if ((int32_t)(IRQn) >= 0)
 8000a0e:	f997 3007 	ldrsb.w	r3, [r7, #7]
 8000a12:	2b00      	cmp	r3, #0
 8000a14:	db0b      	blt.n	8000a2e <__NVIC_EnableIRQ+0x2a>
  {
    __COMPILER_BARRIER();
    NVIC->ISER[(((uint32_t)IRQn) >> 5UL)] = (uint32_t)(1UL << (((uint32_t)IRQn) & 0x1FUL));
 8000a16:	79fb      	ldrb	r3, [r7, #7]
 8000a18:	f003 021f 	and.w	r2, r3, #31
 8000a1c:	4907      	ldr	r1, [pc, #28]	@ (8000a3c <__NVIC_EnableIRQ+0x38>)
 8000a1e:	f997 3007 	ldrsb.w	r3, [r7, #7]
 8000a22:	095b      	lsrs	r3, r3, #5
 8000a24:	2001      	movs	r0, #1
 8000a26:	fa00 f202 	lsl.w	r2, r0, r2
 8000a2a:	f841 2023 	str.w	r2, [r1, r3, lsl #2]
    __COMPILER_BARRIER();
  }
}
 8000a2e:	bf00      	nop
 8000a30:	370c      	adds	r7, #12
 8000a32:	46bd      	mov	sp, r7
 8000a34:	f85d 7b04 	ldr.w	r7, [sp], #4
 8000a38:	4770      	bx	lr
 8000a3a:	bf00      	nop
 8000a3c:	e000e100 	.word	0xe000e100

08000a40 <DMA1_Stream0_IRQHandler>:
 * status flags for FIFO error, direct mode error, transfer error, half
 * transfer complete, and transfer complete, and clears the respective
 * interrupt flag after handling it.
 */
void DMA1_Stream0_IRQHandler(void)
{
 8000a40:	b480      	push	{r7}
 8000a42:	af00      	add	r7, sp, #0
	if(DMA1 -> LISR & DMA_LISR_FEIF0)
 8000a44:	4b54      	ldr	r3, [pc, #336]	@ (8000b98 <DMA1_Stream0_IRQHandler+0x158>)
 8000a46:	681b      	ldr	r3, [r3, #0]
 8000a48:	f003 0301 	and.w	r3, r3, #1
 8000a4c:	2b00      	cmp	r3, #0
 8000a4e:	d01a      	beq.n	8000a86 <DMA1_Stream0_IRQHandler+0x46>
	{
		TIM5_CH3_DMA_Flag.Fifo_Error_Flag = true;
 8000a50:	4b52      	ldr	r3, [pc, #328]	@ (8000b9c <DMA1_Stream0_IRQHandler+0x15c>)
 8000a52:	2201      	movs	r2, #1
 8000a54:	715a      	strb	r2, [r3, #5]
		TIM4_CH1_DMA_Flag.Fifo_Error_Flag = true;
 8000a56:	4b52      	ldr	r3, [pc, #328]	@ (8000ba0 <DMA1_Stream0_IRQHandler+0x160>)
 8000a58:	2201      	movs	r2, #1
 8000a5a:	715a      	strb	r2, [r3, #5]
		USART8_RX_DMA_Flag.Fifo_Error_Flag = true;
 8000a5c:	4b51      	ldr	r3, [pc, #324]	@ (8000ba4 <DMA1_Stream0_IRQHandler+0x164>)
 8000a5e:	2201      	movs	r2, #1
 8000a60:	715a      	strb	r2, [r3, #5]
		USART5_RX_DMA_Flag.Fifo_Error_Flag = true;
 8000a62:	4b51      	ldr	r3, [pc, #324]	@ (8000ba8 <DMA1_Stream0_IRQHandler+0x168>)
 8000a64:	2201      	movs	r2, #1
 8000a66:	715a      	strb	r2, [r3, #5]
		I2C1_RX_DMA_Flag.Fifo_Error_Flag = true;
 8000a68:	4b50      	ldr	r3, [pc, #320]	@ (8000bac <DMA1_Stream0_IRQHandler+0x16c>)
 8000a6a:	2201      	movs	r2, #1
 8000a6c:	715a      	strb	r2, [r3, #5]
		SPI3_RX_DMA_Flag.Fifo_Error_Flag = true;
 8000a6e:	4b50      	ldr	r3, [pc, #320]	@ (8000bb0 <DMA1_Stream0_IRQHandler+0x170>)
 8000a70:	2201      	movs	r2, #1
 8000a72:	715a      	strb	r2, [r3, #5]
		DMA1_Stream0_Flag.Fifo_Error_Flag = true;
 8000a74:	4b4f      	ldr	r3, [pc, #316]	@ (8000bb4 <DMA1_Stream0_IRQHandler+0x174>)
 8000a76:	2201      	movs	r2, #1
 8000a78:	715a      	strb	r2, [r3, #5]
		DMA1 -> LIFCR |= DMA_LIFCR_CFEIF0;
 8000a7a:	4b47      	ldr	r3, [pc, #284]	@ (8000b98 <DMA1_Stream0_IRQHandler+0x158>)
 8000a7c:	689b      	ldr	r3, [r3, #8]
 8000a7e:	4a46      	ldr	r2, [pc, #280]	@ (8000b98 <DMA1_Stream0_IRQHandler+0x158>)
 8000a80:	f043 0301 	orr.w	r3, r3, #1
 8000a84:	6093      	str	r3, [r2, #8]
	}
	/************************************************************************************************************/
	if(DMA1 -> LISR & DMA_LISR_DMEIF0)
 8000a86:	4b44      	ldr	r3, [pc, #272]	@ (8000b98 <DMA1_Stream0_IRQHandler+0x158>)
 8000a88:	681b      	ldr	r3, [r3, #0]
 8000a8a:	f003 0304 	and.w	r3, r3, #4
 8000a8e:	2b00      	cmp	r3, #0
 8000a90:	d01a      	beq.n	8000ac8 <DMA1_Stream0_IRQHandler+0x88>
	{
		TIM5_CH3_DMA_Flag.Direct_Mode_Error_Flag = true;
 8000a92:	4b42      	ldr	r3, [pc, #264]	@ (8000b9c <DMA1_Stream0_IRQHandler+0x15c>)
 8000a94:	2201      	movs	r2, #1
 8000a96:	711a      	strb	r2, [r3, #4]
		TIM4_CH1_DMA_Flag.Direct_Mode_Error_Flag = true;
 8000a98:	4b41      	ldr	r3, [pc, #260]	@ (8000ba0 <DMA1_Stream0_IRQHandler+0x160>)
 8000a9a:	2201      	movs	r2, #1
 8000a9c:	711a      	strb	r2, [r3, #4]
		USART8_RX_DMA_Flag.Direct_Mode_Error_Flag = true;
 8000a9e:	4b41      	ldr	r3, [pc, #260]	@ (8000ba4 <DMA1_Stream0_IRQHandler+0x164>)
 8000aa0:	2201      	movs	r2, #1
 8000aa2:	711a      	strb	r2, [r3, #4]
		USART5_RX_DMA_Flag.Direct_Mode_Error_Flag = true;
 8000aa4:	4b40      	ldr	r3, [pc, #256]	@ (8000ba8 <DMA1_Stream0_IRQHandler+0x168>)
 8000aa6:	2201      	movs	r2, #1
 8000aa8:	711a      	strb	r2, [r3, #4]
		I2C1_RX_DMA_Flag.Direct_Mode_Error_Flag = true;
 8000aaa:	4b40      	ldr	r3, [pc, #256]	@ (8000bac <DMA1_Stream0_IRQHandler+0x16c>)
 8000aac:	2201      	movs	r2, #1
 8000aae:	711a      	strb	r2, [r3, #4]
		SPI3_RX_DMA_Flag.Direct_Mode_Error_Flag = true;
 8000ab0:	4b3f      	ldr	r3, [pc, #252]	@ (8000bb0 <DMA1_Stream0_IRQHandler+0x170>)
 8000ab2:	2201      	movs	r2, #1
 8000ab4:	711a      	strb	r2, [r3, #4]
		DMA1_Stream0_Flag.Direct_Mode_Error_Flag = true;
 8000ab6:	4b3f      	ldr	r3, [pc, #252]	@ (8000bb4 <DMA1_Stream0_IRQHandler+0x174>)
 8000ab8:	2201      	movs	r2, #1
 8000aba:	711a      	strb	r2, [r3, #4]
		DMA1 -> LIFCR |= DMA_LIFCR_CDMEIF0;
 8000abc:	4b36      	ldr	r3, [pc, #216]	@ (8000b98 <DMA1_Stream0_IRQHandler+0x158>)
 8000abe:	689b      	ldr	r3, [r3, #8]
 8000ac0:	4a35      	ldr	r2, [pc, #212]	@ (8000b98 <DMA1_Stream0_IRQHandler+0x158>)
 8000ac2:	f043 0304 	orr.w	r3, r3, #4
 8000ac6:	6093      	str	r3, [r2, #8]
	}
	/************************************************************************************************************/
	if(DMA1 -> LISR & DMA_LISR_TEIF0)
 8000ac8:	4b33      	ldr	r3, [pc, #204]	@ (8000b98 <DMA1_Stream0_IRQHandler+0x158>)
 8000aca:	681b      	ldr	r3, [r3, #0]
 8000acc:	f003 0308 	and.w	r3, r3, #8
 8000ad0:	2b00      	cmp	r3, #0
 8000ad2:	d01a      	beq.n	8000b0a <DMA1_Stream0_IRQHandler+0xca>
	{
		TIM5_CH3_DMA_Flag.Transfer_Error_Flag= true;
 8000ad4:	4b31      	ldr	r3, [pc, #196]	@ (8000b9c <DMA1_Stream0_IRQHandler+0x15c>)
 8000ad6:	2201      	movs	r2, #1
 8000ad8:	70da      	strb	r2, [r3, #3]
		TIM4_CH1_DMA_Flag.Transfer_Error_Flag = true;
 8000ada:	4b31      	ldr	r3, [pc, #196]	@ (8000ba0 <DMA1_Stream0_IRQHandler+0x160>)
 8000adc:	2201      	movs	r2, #1
 8000ade:	70da      	strb	r2, [r3, #3]
		USART8_RX_DMA_Flag.Transfer_Error_Flag = true;
 8000ae0:	4b30      	ldr	r3, [pc, #192]	@ (8000ba4 <DMA1_Stream0_IRQHandler+0x164>)
 8000ae2:	2201      	movs	r2, #1
 8000ae4:	70da      	strb	r2, [r3, #3]
		USART5_RX_DMA_Flag.Transfer_Error_Flag = true;
 8000ae6:	4b30      	ldr	r3, [pc, #192]	@ (8000ba8 <DMA1_Stream0_IRQHandler+0x168>)
 8000ae8:	2201      	movs	r2, #1
 8000aea:	70da      	strb	r2, [r3, #3]
		I2C1_RX_DMA_Flag.Transfer_Error_Flag = true;
 8000aec:	4b2f      	ldr	r3, [pc, #188]	@ (8000bac <DMA1_Stream0_IRQHandler+0x16c>)
 8000aee:	2201      	movs	r2, #1
 8000af0:	70da      	strb	r2, [r3, #3]
		SPI3_RX_DMA_Flag.Transfer_Error_Flag = true;
 8000af2:	4b2f      	ldr	r3, [pc, #188]	@ (8000bb0 <DMA1_Stream0_IRQHandler+0x170>)
 8000af4:	2201      	movs	r2, #1
 8000af6:	70da      	strb	r2, [r3, #3]
		DMA1_Stream0_Flag.Transfer_Error_Flag = true;
 8000af8:	4b2e      	ldr	r3, [pc, #184]	@ (8000bb4 <DMA1_Stream0_IRQHandler+0x174>)
 8000afa:	2201      	movs	r2, #1
 8000afc:	70da      	strb	r2, [r3, #3]
		DMA1 -> LIFCR |= DMA_LIFCR_CTEIF0;
 8000afe:	4b26      	ldr	r3, [pc, #152]	@ (8000b98 <DMA1_Stream0_IRQHandler+0x158>)
 8000b00:	689b      	ldr	r3, [r3, #8]
 8000b02:	4a25      	ldr	r2, [pc, #148]	@ (8000b98 <DMA1_Stream0_IRQHandler+0x158>)
 8000b04:	f043 0308 	orr.w	r3, r3, #8
 8000b08:	6093      	str	r3, [r2, #8]
	}
	/************************************************************************************************************/
	if(DMA1 -> LISR & DMA_LISR_HTIF0)
 8000b0a:	4b23      	ldr	r3, [pc, #140]	@ (8000b98 <DMA1_Stream0_IRQHandler+0x158>)
 8000b0c:	681b      	ldr	r3, [r3, #0]
 8000b0e:	f003 0310 	and.w	r3, r3, #16
 8000b12:	2b00      	cmp	r3, #0
 8000b14:	d01a      	beq.n	8000b4c <DMA1_Stream0_IRQHandler+0x10c>
	{
		TIM5_CH3_DMA_Flag.Half_Transfer_Complete_Flag = true;
 8000b16:	4b21      	ldr	r3, [pc, #132]	@ (8000b9c <DMA1_Stream0_IRQHandler+0x15c>)
 8000b18:	2201      	movs	r2, #1
 8000b1a:	709a      	strb	r2, [r3, #2]
		TIM4_CH1_DMA_Flag.Half_Transfer_Complete_Flag = true;
 8000b1c:	4b20      	ldr	r3, [pc, #128]	@ (8000ba0 <DMA1_Stream0_IRQHandler+0x160>)
 8000b1e:	2201      	movs	r2, #1
 8000b20:	709a      	strb	r2, [r3, #2]
		USART8_RX_DMA_Flag.Half_Transfer_Complete_Flag = true;
 8000b22:	4b20      	ldr	r3, [pc, #128]	@ (8000ba4 <DMA1_Stream0_IRQHandler+0x164>)
 8000b24:	2201      	movs	r2, #1
 8000b26:	709a      	strb	r2, [r3, #2]
		USART5_RX_DMA_Flag.Half_Transfer_Complete_Flag = true;
 8000b28:	4b1f      	ldr	r3, [pc, #124]	@ (8000ba8 <DMA1_Stream0_IRQHandler+0x168>)
 8000b2a:	2201      	movs	r2, #1
 8000b2c:	709a      	strb	r2, [r3, #2]
		I2C1_RX_DMA_Flag.Half_Transfer_Complete_Flag = true;
 8000b2e:	4b1f      	ldr	r3, [pc, #124]	@ (8000bac <DMA1_Stream0_IRQHandler+0x16c>)
 8000b30:	2201      	movs	r2, #1
 8000b32:	709a      	strb	r2, [r3, #2]
		SPI3_RX_DMA_Flag.Half_Transfer_Complete_Flag = true;
 8000b34:	4b1e      	ldr	r3, [pc, #120]	@ (8000bb0 <DMA1_Stream0_IRQHandler+0x170>)
 8000b36:	2201      	movs	r2, #1
 8000b38:	709a      	strb	r2, [r3, #2]
		DMA1_Stream0_Flag.Half_Transfer_Complete_Flag = true;
 8000b3a:	4b1e      	ldr	r3, [pc, #120]	@ (8000bb4 <DMA1_Stream0_IRQHandler+0x174>)
 8000b3c:	2201      	movs	r2, #1
 8000b3e:	709a      	strb	r2, [r3, #2]
		DMA1 -> LIFCR |= DMA_LIFCR_CHTIF0;
 8000b40:	4b15      	ldr	r3, [pc, #84]	@ (8000b98 <DMA1_Stream0_IRQHandler+0x158>)
 8000b42:	689b      	ldr	r3, [r3, #8]
 8000b44:	4a14      	ldr	r2, [pc, #80]	@ (8000b98 <DMA1_Stream0_IRQHandler+0x158>)
 8000b46:	f043 0310 	orr.w	r3, r3, #16
 8000b4a:	6093      	str	r3, [r2, #8]
	}
	/************************************************************************************************************/
	if(DMA1 -> LISR & DMA_LISR_TCIF0)
 8000b4c:	4b12      	ldr	r3, [pc, #72]	@ (8000b98 <DMA1_Stream0_IRQHandler+0x158>)
 8000b4e:	681b      	ldr	r3, [r3, #0]
 8000b50:	f003 0320 	and.w	r3, r3, #32
 8000b54:	2b00      	cmp	r3, #0
 8000b56:	d01a      	beq.n	8000b8e <DMA1_Stream0_IRQHandler+0x14e>
	{
		TIM5_CH3_DMA_Flag.Transfer_Complete_Flag = true;
 8000b58:	4b10      	ldr	r3, [pc, #64]	@ (8000b9c <DMA1_Stream0_IRQHandler+0x15c>)
 8000b5a:	2201      	movs	r2, #1
 8000b5c:	705a      	strb	r2, [r3, #1]
		TIM4_CH1_DMA_Flag.Transfer_Complete_Flag = true;
 8000b5e:	4b10      	ldr	r3, [pc, #64]	@ (8000ba0 <DMA1_Stream0_IRQHandler+0x160>)
 8000b60:	2201      	movs	r2, #1
 8000b62:	705a      	strb	r2, [r3, #1]
		USART8_RX_DMA_Flag.Transfer_Complete_Flag = true;
 8000b64:	4b0f      	ldr	r3, [pc, #60]	@ (8000ba4 <DMA1_Stream0_IRQHandler+0x164>)
 8000b66:	2201      	movs	r2, #1
 8000b68:	705a      	strb	r2, [r3, #1]
		USART5_RX_DMA_Flag.Transfer_Complete_Flag = true;
 8000b6a:	4b0f      	ldr	r3, [pc, #60]	@ (8000ba8 <DMA1_Stream0_IRQHandler+0x168>)
 8000b6c:	2201      	movs	r2, #1
 8000b6e:	705a      	strb	r2, [r3, #1]
		I2C1_RX_DMA_Flag.Transfer_Complete_Flag = true;
 8000b70:	4b0e      	ldr	r3, [pc, #56]	@ (8000bac <DMA1_Stream0_IRQHandler+0x16c>)
 8000b72:	2201      	movs	r2, #1
 8000b74:	705a      	strb	r2, [r3, #1]
		SPI3_RX_DMA_Flag.Transfer_Complete_Flag = true;
 8000b76:	4b0e      	ldr	r3, [pc, #56]	@ (8000bb0 <DMA1_Stream0_IRQHandler+0x170>)
 8000b78:	2201      	movs	r2, #1
 8000b7a:	705a      	strb	r2, [r3, #1]
		DMA1_Stream0_Flag.Transfer_Complete_Flag = true;
 8000b7c:	4b0d      	ldr	r3, [pc, #52]	@ (8000bb4 <DMA1_Stream0_IRQHandler+0x174>)
 8000b7e:	2201      	movs	r2, #1
 8000b80:	705a      	strb	r2, [r3, #1]
		DMA1 -> LIFCR |= DMA_LIFCR_CTCIF0;
 8000b82:	4b05      	ldr	r3, [pc, #20]	@ (8000b98 <DMA1_Stream0_IRQHandler+0x158>)
 8000b84:	689b      	ldr	r3, [r3, #8]
 8000b86:	4a04      	ldr	r2, [pc, #16]	@ (8000b98 <DMA1_Stream0_IRQHandler+0x158>)
 8000b88:	f043 0320 	orr.w	r3, r3, #32
 8000b8c:	6093      	str	r3, [r2, #8]
	}
}
 8000b8e:	bf00      	nop
 8000b90:	46bd      	mov	sp, r7
 8000b92:	f85d 7b04 	ldr.w	r7, [sp], #4
 8000b96:	4770      	bx	lr
 8000b98:	40026000 	.word	0x40026000
 8000b9c:	200001c8 	.word	0x200001c8
 8000ba0:	200001a8 	.word	0x200001a8
 8000ba4:	200000e8 	.word	0x200000e8
 8000ba8:	200000c0 	.word	0x200000c0
 8000bac:	20000038 	.word	0x20000038
 8000bb0:	20000068 	.word	0x20000068
 8000bb4:	20000210 	.word	0x20000210

08000bb8 <DMA1_Stream1_IRQHandler>:
 * transfer error, half transfer complete, and transfer complete. For each
 * event, it sets the corresponding flag in the `DMA1_Stream1_Flag` structure
 * and clears the respective interrupt flag in the DMA interrupt flag clear register.
 */
void DMA1_Stream1_IRQHandler(void)
{
 8000bb8:	b480      	push	{r7}
 8000bba:	af00      	add	r7, sp, #0
	if(DMA1 -> LISR & DMA_LISR_FEIF1)
 8000bbc:	4b45      	ldr	r3, [pc, #276]	@ (8000cd4 <DMA1_Stream1_IRQHandler+0x11c>)
 8000bbe:	681b      	ldr	r3, [r3, #0]
 8000bc0:	f003 0340 	and.w	r3, r3, #64	@ 0x40
 8000bc4:	2b00      	cmp	r3, #0
 8000bc6:	d014      	beq.n	8000bf2 <DMA1_Stream1_IRQHandler+0x3a>
	{
		TIM2_CH3_DMA_Flag.Fifo_Error_Flag = true;
 8000bc8:	4b43      	ldr	r3, [pc, #268]	@ (8000cd8 <DMA1_Stream1_IRQHandler+0x120>)
 8000bca:	2201      	movs	r2, #1
 8000bcc:	715a      	strb	r2, [r3, #5]
		TIM6_UP_DMA_Flag.Fifo_Error_Flag = true;
 8000bce:	4b43      	ldr	r3, [pc, #268]	@ (8000cdc <DMA1_Stream1_IRQHandler+0x124>)
 8000bd0:	2201      	movs	r2, #1
 8000bd2:	715a      	strb	r2, [r3, #5]
		USART7_RX_DMA_Flag.Fifo_Error_Flag = true;
 8000bd4:	4b42      	ldr	r3, [pc, #264]	@ (8000ce0 <DMA1_Stream1_IRQHandler+0x128>)
 8000bd6:	2201      	movs	r2, #1
 8000bd8:	715a      	strb	r2, [r3, #5]
		USART3_RX_DMA_Flag.Fifo_Error_Flag = true;
 8000bda:	4b42      	ldr	r3, [pc, #264]	@ (8000ce4 <DMA1_Stream1_IRQHandler+0x12c>)
 8000bdc:	2201      	movs	r2, #1
 8000bde:	715a      	strb	r2, [r3, #5]
		DMA1_Stream1_Flag.Fifo_Error_Flag = true;
 8000be0:	4b41      	ldr	r3, [pc, #260]	@ (8000ce8 <DMA1_Stream1_IRQHandler+0x130>)
 8000be2:	2201      	movs	r2, #1
 8000be4:	715a      	strb	r2, [r3, #5]
		DMA1 -> LIFCR |= DMA_LIFCR_CFEIF1;
 8000be6:	4b3b      	ldr	r3, [pc, #236]	@ (8000cd4 <DMA1_Stream1_IRQHandler+0x11c>)
 8000be8:	689b      	ldr	r3, [r3, #8]
 8000bea:	4a3a      	ldr	r2, [pc, #232]	@ (8000cd4 <DMA1_Stream1_IRQHandler+0x11c>)
 8000bec:	f043 0340 	orr.w	r3, r3, #64	@ 0x40
 8000bf0:	6093      	str	r3, [r2, #8]
	}
	/************************************************************************************************************/
	if(DMA1 -> LISR & DMA_LISR_DMEIF1)
 8000bf2:	4b38      	ldr	r3, [pc, #224]	@ (8000cd4 <DMA1_Stream1_IRQHandler+0x11c>)
 8000bf4:	681b      	ldr	r3, [r3, #0]
 8000bf6:	f403 7380 	and.w	r3, r3, #256	@ 0x100
 8000bfa:	2b00      	cmp	r3, #0
 8000bfc:	d014      	beq.n	8000c28 <DMA1_Stream1_IRQHandler+0x70>
	{
		TIM2_CH3_DMA_Flag.Direct_Mode_Error_Flag = true;
 8000bfe:	4b36      	ldr	r3, [pc, #216]	@ (8000cd8 <DMA1_Stream1_IRQHandler+0x120>)
 8000c00:	2201      	movs	r2, #1
 8000c02:	711a      	strb	r2, [r3, #4]
		TIM6_UP_DMA_Flag.Direct_Mode_Error_Flag = true;
 8000c04:	4b35      	ldr	r3, [pc, #212]	@ (8000cdc <DMA1_Stream1_IRQHandler+0x124>)
 8000c06:	2201      	movs	r2, #1
 8000c08:	711a      	strb	r2, [r3, #4]
		USART7_RX_DMA_Flag.Direct_Mode_Error_Flag = true;
 8000c0a:	4b35      	ldr	r3, [pc, #212]	@ (8000ce0 <DMA1_Stream1_IRQHandler+0x128>)
 8000c0c:	2201      	movs	r2, #1
 8000c0e:	711a      	strb	r2, [r3, #4]
		USART3_RX_DMA_Flag.Direct_Mode_Error_Flag = true;
 8000c10:	4b34      	ldr	r3, [pc, #208]	@ (8000ce4 <DMA1_Stream1_IRQHandler+0x12c>)
 8000c12:	2201      	movs	r2, #1
 8000c14:	711a      	strb	r2, [r3, #4]
		DMA1_Stream1_Flag.Direct_Mode_Error_Flag = true;
 8000c16:	4b34      	ldr	r3, [pc, #208]	@ (8000ce8 <DMA1_Stream1_IRQHandler+0x130>)
 8000c18:	2201      	movs	r2, #1
 8000c1a:	711a      	strb	r2, [r3, #4]
		DMA1 -> LIFCR |= DMA_LIFCR_CDMEIF1;
 8000c1c:	4b2d      	ldr	r3, [pc, #180]	@ (8000cd4 <DMA1_Stream1_IRQHandler+0x11c>)
 8000c1e:	689b      	ldr	r3, [r3, #8]
 8000c20:	4a2c      	ldr	r2, [pc, #176]	@ (8000cd4 <DMA1_Stream1_IRQHandler+0x11c>)
 8000c22:	f443 7380 	orr.w	r3, r3, #256	@ 0x100
 8000c26:	6093      	str	r3, [r2, #8]
	}
	/************************************************************************************************************/
	if(DMA1 -> LISR & DMA_LISR_TEIF1)
 8000c28:	4b2a      	ldr	r3, [pc, #168]	@ (8000cd4 <DMA1_Stream1_IRQHandler+0x11c>)
 8000c2a:	681b      	ldr	r3, [r3, #0]
 8000c2c:	f403 7300 	and.w	r3, r3, #512	@ 0x200
 8000c30:	2b00      	cmp	r3, #0
 8000c32:	d014      	beq.n	8000c5e <DMA1_Stream1_IRQHandler+0xa6>
	{
		TIM2_CH3_DMA_Flag.Transfer_Error_Flag = true;
 8000c34:	4b28      	ldr	r3, [pc, #160]	@ (8000cd8 <DMA1_Stream1_IRQHandler+0x120>)
 8000c36:	2201      	movs	r2, #1
 8000c38:	70da      	strb	r2, [r3, #3]
		TIM6_UP_DMA_Flag.Transfer_Error_Flag = true;
 8000c3a:	4b28      	ldr	r3, [pc, #160]	@ (8000cdc <DMA1_Stream1_IRQHandler+0x124>)
 8000c3c:	2201      	movs	r2, #1
 8000c3e:	70da      	strb	r2, [r3, #3]
		USART7_RX_DMA_Flag.Transfer_Error_Flag = true;
 8000c40:	4b27      	ldr	r3, [pc, #156]	@ (8000ce0 <DMA1_Stream1_IRQHandler+0x128>)
 8000c42:	2201      	movs	r2, #1
 8000c44:	70da      	strb	r2, [r3, #3]
		USART3_RX_DMA_Flag.Transfer_Error_Flag = true;
 8000c46:	4b27      	ldr	r3, [pc, #156]	@ (8000ce4 <DMA1_Stream1_IRQHandler+0x12c>)
 8000c48:	2201      	movs	r2, #1
 8000c4a:	70da      	strb	r2, [r3, #3]
		DMA1_Stream1_Flag.Transfer_Error_Flag = true;
 8000c4c:	4b26      	ldr	r3, [pc, #152]	@ (8000ce8 <DMA1_Stream1_IRQHandler+0x130>)
 8000c4e:	2201      	movs	r2, #1
 8000c50:	70da      	strb	r2, [r3, #3]
		DMA1 -> LIFCR |= DMA_LIFCR_CTEIF1;
 8000c52:	4b20      	ldr	r3, [pc, #128]	@ (8000cd4 <DMA1_Stream1_IRQHandler+0x11c>)
 8000c54:	689b      	ldr	r3, [r3, #8]
 8000c56:	4a1f      	ldr	r2, [pc, #124]	@ (8000cd4 <DMA1_Stream1_IRQHandler+0x11c>)
 8000c58:	f443 7300 	orr.w	r3, r3, #512	@ 0x200
 8000c5c:	6093      	str	r3, [r2, #8]
	}
	/************************************************************************************************************/
	if(DMA1 -> LISR & DMA_LISR_HTIF1)
 8000c5e:	4b1d      	ldr	r3, [pc, #116]	@ (8000cd4 <DMA1_Stream1_IRQHandler+0x11c>)
 8000c60:	681b      	ldr	r3, [r3, #0]
 8000c62:	f403 6380 	and.w	r3, r3, #1024	@ 0x400
 8000c66:	2b00      	cmp	r3, #0
 8000c68:	d014      	beq.n	8000c94 <DMA1_Stream1_IRQHandler+0xdc>
	{
		TIM2_CH3_DMA_Flag.Half_Transfer_Complete_Flag = true;
 8000c6a:	4b1b      	ldr	r3, [pc, #108]	@ (8000cd8 <DMA1_Stream1_IRQHandler+0x120>)
 8000c6c:	2201      	movs	r2, #1
 8000c6e:	709a      	strb	r2, [r3, #2]
		TIM6_UP_DMA_Flag.Half_Transfer_Complete_Flag = true;
 8000c70:	4b1a      	ldr	r3, [pc, #104]	@ (8000cdc <DMA1_Stream1_IRQHandler+0x124>)
 8000c72:	2201      	movs	r2, #1
 8000c74:	709a      	strb	r2, [r3, #2]
		USART7_RX_DMA_Flag.Half_Transfer_Complete_Flag = true;
 8000c76:	4b1a      	ldr	r3, [pc, #104]	@ (8000ce0 <DMA1_Stream1_IRQHandler+0x128>)
 8000c78:	2201      	movs	r2, #1
 8000c7a:	709a      	strb	r2, [r3, #2]
		USART3_RX_DMA_Flag.Half_Transfer_Complete_Flag = true;
 8000c7c:	4b19      	ldr	r3, [pc, #100]	@ (8000ce4 <DMA1_Stream1_IRQHandler+0x12c>)
 8000c7e:	2201      	movs	r2, #1
 8000c80:	709a      	strb	r2, [r3, #2]
		DMA1_Stream1_Flag.Half_Transfer_Complete_Flag = true;
 8000c82:	4b19      	ldr	r3, [pc, #100]	@ (8000ce8 <DMA1_Stream1_IRQHandler+0x130>)
 8000c84:	2201      	movs	r2, #1
 8000c86:	709a      	strb	r2, [r3, #2]
		DMA1 -> LIFCR |= DMA_LIFCR_CHTIF1;
 8000c88:	4b12      	ldr	r3, [pc, #72]	@ (8000cd4 <DMA1_Stream1_IRQHandler+0x11c>)
 8000c8a:	689b      	ldr	r3, [r3, #8]
 8000c8c:	4a11      	ldr	r2, [pc, #68]	@ (8000cd4 <DMA1_Stream1_IRQHandler+0x11c>)
 8000c8e:	f443 6380 	orr.w	r3, r3, #1024	@ 0x400
 8000c92:	6093      	str	r3, [r2, #8]
	}
	/************************************************************************************************************/
	if(DMA1 -> LISR & DMA_LISR_TCIF1)
 8000c94:	4b0f      	ldr	r3, [pc, #60]	@ (8000cd4 <DMA1_Stream1_IRQHandler+0x11c>)
 8000c96:	681b      	ldr	r3, [r3, #0]
 8000c98:	f403 6300 	and.w	r3, r3, #2048	@ 0x800
 8000c9c:	2b00      	cmp	r3, #0
 8000c9e:	d014      	beq.n	8000cca <DMA1_Stream1_IRQHandler+0x112>
	{
		TIM2_CH3_DMA_Flag.Transfer_Complete_Flag = true;
 8000ca0:	4b0d      	ldr	r3, [pc, #52]	@ (8000cd8 <DMA1_Stream1_IRQHandler+0x120>)
 8000ca2:	2201      	movs	r2, #1
 8000ca4:	705a      	strb	r2, [r3, #1]
		TIM6_UP_DMA_Flag.Transfer_Complete_Flag = true;
 8000ca6:	4b0d      	ldr	r3, [pc, #52]	@ (8000cdc <DMA1_Stream1_IRQHandler+0x124>)
 8000ca8:	2201      	movs	r2, #1
 8000caa:	705a      	strb	r2, [r3, #1]
		USART7_RX_DMA_Flag.Transfer_Complete_Flag = true;
 8000cac:	4b0c      	ldr	r3, [pc, #48]	@ (8000ce0 <DMA1_Stream1_IRQHandler+0x128>)
 8000cae:	2201      	movs	r2, #1
 8000cb0:	705a      	strb	r2, [r3, #1]
		USART3_RX_DMA_Flag.Transfer_Complete_Flag = true;
 8000cb2:	4b0c      	ldr	r3, [pc, #48]	@ (8000ce4 <DMA1_Stream1_IRQHandler+0x12c>)
 8000cb4:	2201      	movs	r2, #1
 8000cb6:	705a      	strb	r2, [r3, #1]
		DMA1_Stream1_Flag.Transfer_Complete_Flag = true;
 8000cb8:	4b0b      	ldr	r3, [pc, #44]	@ (8000ce8 <DMA1_Stream1_IRQHandler+0x130>)
 8000cba:	2201      	movs	r2, #1
 8000cbc:	705a      	strb	r2, [r3, #1]
		DMA1 -> LIFCR |= DMA_LIFCR_CTCIF1;
 8000cbe:	4b05      	ldr	r3, [pc, #20]	@ (8000cd4 <DMA1_Stream1_IRQHandler+0x11c>)
 8000cc0:	689b      	ldr	r3, [r3, #8]
 8000cc2:	4a04      	ldr	r2, [pc, #16]	@ (8000cd4 <DMA1_Stream1_IRQHandler+0x11c>)
 8000cc4:	f443 6300 	orr.w	r3, r3, #2048	@ 0x800
 8000cc8:	6093      	str	r3, [r2, #8]
	}
}
 8000cca:	bf00      	nop
 8000ccc:	46bd      	mov	sp, r7
 8000cce:	f85d 7b04 	ldr.w	r7, [sp], #4
 8000cd2:	4770      	bx	lr
 8000cd4:	40026000 	.word	0x40026000
 8000cd8:	20000178 	.word	0x20000178
 8000cdc:	200001d8 	.word	0x200001d8
 8000ce0:	200000e0 	.word	0x200000e0
 8000ce4:	200000a8 	.word	0x200000a8
 8000ce8:	20000218 	.word	0x20000218

08000cec <DMA1_Stream2_IRQHandler>:
 * transfer error, half transfer complete, and transfer complete. For each
 * event, it sets the corresponding flag in the `DMA1_Stream2_Flag` structure
 * and clears the respective interrupt flag in the DMA interrupt flag clear register.
 */
void DMA1_Stream2_IRQHandler(void)
{
 8000cec:	b480      	push	{r7}
 8000cee:	af00      	add	r7, sp, #0
	if(DMA1 -> LISR & DMA_LISR_FEIF2)
 8000cf0:	4b2f      	ldr	r3, [pc, #188]	@ (8000db0 <DMA1_Stream2_IRQHandler+0xc4>)
 8000cf2:	681b      	ldr	r3, [r3, #0]
 8000cf4:	f403 3380 	and.w	r3, r3, #65536	@ 0x10000
 8000cf8:	2b00      	cmp	r3, #0
 8000cfa:	d00b      	beq.n	8000d14 <DMA1_Stream2_IRQHandler+0x28>
	{
		USART3_TX_DMA_Flag.Fifo_Error_Flag = true;
 8000cfc:	4b2d      	ldr	r3, [pc, #180]	@ (8000db4 <DMA1_Stream2_IRQHandler+0xc8>)
 8000cfe:	2201      	movs	r2, #1
 8000d00:	715a      	strb	r2, [r3, #5]
		DMA1_Stream2_Flag.Fifo_Error_Flag = true;
 8000d02:	4b2d      	ldr	r3, [pc, #180]	@ (8000db8 <DMA1_Stream2_IRQHandler+0xcc>)
 8000d04:	2201      	movs	r2, #1
 8000d06:	715a      	strb	r2, [r3, #5]
		DMA1 -> LIFCR |= DMA_LIFCR_CFEIF2;
 8000d08:	4b29      	ldr	r3, [pc, #164]	@ (8000db0 <DMA1_Stream2_IRQHandler+0xc4>)
 8000d0a:	689b      	ldr	r3, [r3, #8]
 8000d0c:	4a28      	ldr	r2, [pc, #160]	@ (8000db0 <DMA1_Stream2_IRQHandler+0xc4>)
 8000d0e:	f443 3380 	orr.w	r3, r3, #65536	@ 0x10000
 8000d12:	6093      	str	r3, [r2, #8]
	}
	/************************************************************************************************************/
	if(DMA1 -> LISR & DMA_LISR_DMEIF2)
 8000d14:	4b26      	ldr	r3, [pc, #152]	@ (8000db0 <DMA1_Stream2_IRQHandler+0xc4>)
 8000d16:	681b      	ldr	r3, [r3, #0]
 8000d18:	f403 2380 	and.w	r3, r3, #262144	@ 0x40000
 8000d1c:	2b00      	cmp	r3, #0
 8000d1e:	d00b      	beq.n	8000d38 <DMA1_Stream2_IRQHandler+0x4c>
	{
		USART3_TX_DMA_Flag.Direct_Mode_Error_Flag = true;
 8000d20:	4b24      	ldr	r3, [pc, #144]	@ (8000db4 <DMA1_Stream2_IRQHandler+0xc8>)
 8000d22:	2201      	movs	r2, #1
 8000d24:	711a      	strb	r2, [r3, #4]
		DMA1_Stream2_Flag.Direct_Mode_Error_Flag = true;
 8000d26:	4b24      	ldr	r3, [pc, #144]	@ (8000db8 <DMA1_Stream2_IRQHandler+0xcc>)
 8000d28:	2201      	movs	r2, #1
 8000d2a:	711a      	strb	r2, [r3, #4]
		DMA1 -> LIFCR |= DMA_LIFCR_CDMEIF2;
 8000d2c:	4b20      	ldr	r3, [pc, #128]	@ (8000db0 <DMA1_Stream2_IRQHandler+0xc4>)
 8000d2e:	689b      	ldr	r3, [r3, #8]
 8000d30:	4a1f      	ldr	r2, [pc, #124]	@ (8000db0 <DMA1_Stream2_IRQHandler+0xc4>)
 8000d32:	f443 2380 	orr.w	r3, r3, #262144	@ 0x40000
 8000d36:	6093      	str	r3, [r2, #8]
	}
	/************************************************************************************************************/
	if(DMA1 -> LISR & DMA_LISR_TEIF2)
 8000d38:	4b1d      	ldr	r3, [pc, #116]	@ (8000db0 <DMA1_Stream2_IRQHandler+0xc4>)
 8000d3a:	681b      	ldr	r3, [r3, #0]
 8000d3c:	f403 2300 	and.w	r3, r3, #524288	@ 0x80000
 8000d40:	2b00      	cmp	r3, #0
 8000d42:	d00b      	beq.n	8000d5c <DMA1_Stream2_IRQHandler+0x70>
	{
		USART3_TX_DMA_Flag.Transfer_Error_Flag = true;
 8000d44:	4b1b      	ldr	r3, [pc, #108]	@ (8000db4 <DMA1_Stream2_IRQHandler+0xc8>)
 8000d46:	2201      	movs	r2, #1
 8000d48:	70da      	strb	r2, [r3, #3]
		DMA1_Stream2_Flag.Transfer_Error_Flag = true;
 8000d4a:	4b1b      	ldr	r3, [pc, #108]	@ (8000db8 <DMA1_Stream2_IRQHandler+0xcc>)
 8000d4c:	2201      	movs	r2, #1
 8000d4e:	70da      	strb	r2, [r3, #3]
		DMA1 -> LIFCR |= DMA_LIFCR_CTEIF2;
 8000d50:	4b17      	ldr	r3, [pc, #92]	@ (8000db0 <DMA1_Stream2_IRQHandler+0xc4>)
 8000d52:	689b      	ldr	r3, [r3, #8]
 8000d54:	4a16      	ldr	r2, [pc, #88]	@ (8000db0 <DMA1_Stream2_IRQHandler+0xc4>)
 8000d56:	f443 2300 	orr.w	r3, r3, #524288	@ 0x80000
 8000d5a:	6093      	str	r3, [r2, #8]
	}
	/************************************************************************************************************/
	if(DMA1 -> LISR & DMA_LISR_HTIF2)
 8000d5c:	4b14      	ldr	r3, [pc, #80]	@ (8000db0 <DMA1_Stream2_IRQHandler+0xc4>)
 8000d5e:	681b      	ldr	r3, [r3, #0]
 8000d60:	f403 1380 	and.w	r3, r3, #1048576	@ 0x100000
 8000d64:	2b00      	cmp	r3, #0
 8000d66:	d00b      	beq.n	8000d80 <DMA1_Stream2_IRQHandler+0x94>
	{
		USART3_TX_DMA_Flag.Half_Transfer_Complete_Flag = true;
 8000d68:	4b12      	ldr	r3, [pc, #72]	@ (8000db4 <DMA1_Stream2_IRQHandler+0xc8>)
 8000d6a:	2201      	movs	r2, #1
 8000d6c:	709a      	strb	r2, [r3, #2]
		DMA1_Stream2_Flag.Half_Transfer_Complete_Flag = true;
 8000d6e:	4b12      	ldr	r3, [pc, #72]	@ (8000db8 <DMA1_Stream2_IRQHandler+0xcc>)
 8000d70:	2201      	movs	r2, #1
 8000d72:	709a      	strb	r2, [r3, #2]
		DMA1 -> LIFCR |= DMA_LIFCR_CHTIF2;
 8000d74:	4b0e      	ldr	r3, [pc, #56]	@ (8000db0 <DMA1_Stream2_IRQHandler+0xc4>)
 8000d76:	689b      	ldr	r3, [r3, #8]
 8000d78:	4a0d      	ldr	r2, [pc, #52]	@ (8000db0 <DMA1_Stream2_IRQHandler+0xc4>)
 8000d7a:	f443 1380 	orr.w	r3, r3, #1048576	@ 0x100000
 8000d7e:	6093      	str	r3, [r2, #8]
	}
	/************************************************************************************************************/
	if(DMA1 -> LISR & DMA_LISR_TCIF2)
 8000d80:	4b0b      	ldr	r3, [pc, #44]	@ (8000db0 <DMA1_Stream2_IRQHandler+0xc4>)
 8000d82:	681b      	ldr	r3, [r3, #0]
 8000d84:	f403 1300 	and.w	r3, r3, #2097152	@ 0x200000
 8000d88:	2b00      	cmp	r3, #0
 8000d8a:	d00b      	beq.n	8000da4 <DMA1_Stream2_IRQHandler+0xb8>
	{
		USART3_TX_DMA_Flag.Transfer_Complete_Flag = true;
 8000d8c:	4b09      	ldr	r3, [pc, #36]	@ (8000db4 <DMA1_Stream2_IRQHandler+0xc8>)
 8000d8e:	2201      	movs	r2, #1
 8000d90:	705a      	strb	r2, [r3, #1]
		DMA1_Stream2_Flag.Transfer_Complete_Flag = true;
 8000d92:	4b09      	ldr	r3, [pc, #36]	@ (8000db8 <DMA1_Stream2_IRQHandler+0xcc>)
 8000d94:	2201      	movs	r2, #1
 8000d96:	705a      	strb	r2, [r3, #1]
		DMA1 -> LIFCR |= DMA_LIFCR_CTCIF2;
 8000d98:	4b05      	ldr	r3, [pc, #20]	@ (8000db0 <DMA1_Stream2_IRQHandler+0xc4>)
 8000d9a:	689b      	ldr	r3, [r3, #8]
 8000d9c:	4a04      	ldr	r2, [pc, #16]	@ (8000db0 <DMA1_Stream2_IRQHandler+0xc4>)
 8000d9e:	f443 1300 	orr.w	r3, r3, #2097152	@ 0x200000
 8000da2:	6093      	str	r3, [r2, #8]
	}
}
 8000da4:	bf00      	nop
 8000da6:	46bd      	mov	sp, r7
 8000da8:	f85d 7b04 	ldr.w	r7, [sp], #4
 8000dac:	4770      	bx	lr
 8000dae:	bf00      	nop
 8000db0:	40026000 	.word	0x40026000
 8000db4:	200000b0 	.word	0x200000b0
 8000db8:	20000220 	.word	0x20000220

08000dbc <DMA1_Stream3_IRQHandler>:
 * transfer error, half transfer complete, and transfer complete. For each
 * event, it sets the corresponding flag in the `DMA1_Stream3_Flag` structure
 * and clears the respective interrupt flag in the DMA interrupt flag clear register.
 */
void DMA1_Stream3_IRQHandler(void)
{
 8000dbc:	b480      	push	{r7}
 8000dbe:	af00      	add	r7, sp, #0
	if(DMA1 -> LISR & DMA_LISR_FEIF3)
 8000dc0:	4b54      	ldr	r3, [pc, #336]	@ (8000f14 <DMA1_Stream3_IRQHandler+0x158>)
 8000dc2:	681b      	ldr	r3, [r3, #0]
 8000dc4:	f403 0380 	and.w	r3, r3, #4194304	@ 0x400000
 8000dc8:	2b00      	cmp	r3, #0
 8000dca:	d01a      	beq.n	8000e02 <DMA1_Stream3_IRQHandler+0x46>
	{
		TIM5_TRIG_DMA_Flag.Fifo_Error_Flag = true;
 8000dcc:	4b52      	ldr	r3, [pc, #328]	@ (8000f18 <DMA1_Stream3_IRQHandler+0x15c>)
 8000dce:	2201      	movs	r2, #1
 8000dd0:	715a      	strb	r2, [r3, #5]
		TIM4_CH2_DMA_Flag.Fifo_Error_Flag = true;
 8000dd2:	4b52      	ldr	r3, [pc, #328]	@ (8000f1c <DMA1_Stream3_IRQHandler+0x160>)
 8000dd4:	2201      	movs	r2, #1
 8000dd6:	715a      	strb	r2, [r3, #5]
		USART7_RX_DMA_Flag.Fifo_Error_Flag = true;
 8000dd8:	4b51      	ldr	r3, [pc, #324]	@ (8000f20 <DMA1_Stream3_IRQHandler+0x164>)
 8000dda:	2201      	movs	r2, #1
 8000ddc:	715a      	strb	r2, [r3, #5]
		USART3_TX_DMA_Flag.Fifo_Error_Flag = true;
 8000dde:	4b51      	ldr	r3, [pc, #324]	@ (8000f24 <DMA1_Stream3_IRQHandler+0x168>)
 8000de0:	2201      	movs	r2, #1
 8000de2:	715a      	strb	r2, [r3, #5]
		I2S2_RX_DMA_Flag.Fifo_Error_Flag = true;
 8000de4:	4b50      	ldr	r3, [pc, #320]	@ (8000f28 <DMA1_Stream3_IRQHandler+0x16c>)
 8000de6:	2201      	movs	r2, #1
 8000de8:	715a      	strb	r2, [r3, #5]
		SPI2_RX_DMA_Flag.Fifo_Error_Flag = true;
 8000dea:	4b50      	ldr	r3, [pc, #320]	@ (8000f2c <DMA1_Stream3_IRQHandler+0x170>)
 8000dec:	2201      	movs	r2, #1
 8000dee:	715a      	strb	r2, [r3, #5]
		DMA1_Stream3_Flag.Fifo_Error_Flag = true;
 8000df0:	4b4f      	ldr	r3, [pc, #316]	@ (8000f30 <DMA1_Stream3_IRQHandler+0x174>)
 8000df2:	2201      	movs	r2, #1
 8000df4:	715a      	strb	r2, [r3, #5]
		DMA1 -> LIFCR |= DMA_LIFCR_CFEIF3;
 8000df6:	4b47      	ldr	r3, [pc, #284]	@ (8000f14 <DMA1_Stream3_IRQHandler+0x158>)
 8000df8:	689b      	ldr	r3, [r3, #8]
 8000dfa:	4a46      	ldr	r2, [pc, #280]	@ (8000f14 <DMA1_Stream3_IRQHandler+0x158>)
 8000dfc:	f443 0380 	orr.w	r3, r3, #4194304	@ 0x400000
 8000e00:	6093      	str	r3, [r2, #8]
	}
	/************************************************************************************************************/
	if(DMA1 -> LISR & DMA_LISR_DMEIF3)
 8000e02:	4b44      	ldr	r3, [pc, #272]	@ (8000f14 <DMA1_Stream3_IRQHandler+0x158>)
 8000e04:	681b      	ldr	r3, [r3, #0]
 8000e06:	f003 7380 	and.w	r3, r3, #16777216	@ 0x1000000
 8000e0a:	2b00      	cmp	r3, #0
 8000e0c:	d01a      	beq.n	8000e44 <DMA1_Stream3_IRQHandler+0x88>
	{
		TIM5_TRIG_DMA_Flag.Direct_Mode_Error_Flag = true;
 8000e0e:	4b42      	ldr	r3, [pc, #264]	@ (8000f18 <DMA1_Stream3_IRQHandler+0x15c>)
 8000e10:	2201      	movs	r2, #1
 8000e12:	711a      	strb	r2, [r3, #4]
		TIM4_CH2_DMA_Flag.Direct_Mode_Error_Flag = true;
 8000e14:	4b41      	ldr	r3, [pc, #260]	@ (8000f1c <DMA1_Stream3_IRQHandler+0x160>)
 8000e16:	2201      	movs	r2, #1
 8000e18:	711a      	strb	r2, [r3, #4]
		USART7_RX_DMA_Flag.Direct_Mode_Error_Flag = true;
 8000e1a:	4b41      	ldr	r3, [pc, #260]	@ (8000f20 <DMA1_Stream3_IRQHandler+0x164>)
 8000e1c:	2201      	movs	r2, #1
 8000e1e:	711a      	strb	r2, [r3, #4]
		USART3_TX_DMA_Flag.Direct_Mode_Error_Flag = true;
 8000e20:	4b40      	ldr	r3, [pc, #256]	@ (8000f24 <DMA1_Stream3_IRQHandler+0x168>)
 8000e22:	2201      	movs	r2, #1
 8000e24:	711a      	strb	r2, [r3, #4]
		I2S2_RX_DMA_Flag.Direct_Mode_Error_Flag = true;
 8000e26:	4b40      	ldr	r3, [pc, #256]	@ (8000f28 <DMA1_Stream3_IRQHandler+0x16c>)
 8000e28:	2201      	movs	r2, #1
 8000e2a:	711a      	strb	r2, [r3, #4]
		SPI2_RX_DMA_Flag.Direct_Mode_Error_Flag = true;
 8000e2c:	4b3f      	ldr	r3, [pc, #252]	@ (8000f2c <DMA1_Stream3_IRQHandler+0x170>)
 8000e2e:	2201      	movs	r2, #1
 8000e30:	711a      	strb	r2, [r3, #4]
		DMA1_Stream3_Flag.Direct_Mode_Error_Flag = true;
 8000e32:	4b3f      	ldr	r3, [pc, #252]	@ (8000f30 <DMA1_Stream3_IRQHandler+0x174>)
 8000e34:	2201      	movs	r2, #1
 8000e36:	711a      	strb	r2, [r3, #4]
		DMA1 -> LIFCR |= DMA_LIFCR_CDMEIF3;
 8000e38:	4b36      	ldr	r3, [pc, #216]	@ (8000f14 <DMA1_Stream3_IRQHandler+0x158>)
 8000e3a:	689b      	ldr	r3, [r3, #8]
 8000e3c:	4a35      	ldr	r2, [pc, #212]	@ (8000f14 <DMA1_Stream3_IRQHandler+0x158>)
 8000e3e:	f043 7380 	orr.w	r3, r3, #16777216	@ 0x1000000
 8000e42:	6093      	str	r3, [r2, #8]
	}
	/************************************************************************************************************/
	if(DMA1 -> LISR & DMA_LISR_TEIF3)
 8000e44:	4b33      	ldr	r3, [pc, #204]	@ (8000f14 <DMA1_Stream3_IRQHandler+0x158>)
 8000e46:	681b      	ldr	r3, [r3, #0]
 8000e48:	f003 7300 	and.w	r3, r3, #33554432	@ 0x2000000
 8000e4c:	2b00      	cmp	r3, #0
 8000e4e:	d01a      	beq.n	8000e86 <DMA1_Stream3_IRQHandler+0xca>
	{
		TIM5_TRIG_DMA_Flag.Transfer_Error_Flag = true;
 8000e50:	4b31      	ldr	r3, [pc, #196]	@ (8000f18 <DMA1_Stream3_IRQHandler+0x15c>)
 8000e52:	2201      	movs	r2, #1
 8000e54:	70da      	strb	r2, [r3, #3]
		TIM4_CH2_DMA_Flag.Transfer_Error_Flag = true;
 8000e56:	4b31      	ldr	r3, [pc, #196]	@ (8000f1c <DMA1_Stream3_IRQHandler+0x160>)
 8000e58:	2201      	movs	r2, #1
 8000e5a:	70da      	strb	r2, [r3, #3]
		USART7_RX_DMA_Flag.Transfer_Error_Flag = true;
 8000e5c:	4b30      	ldr	r3, [pc, #192]	@ (8000f20 <DMA1_Stream3_IRQHandler+0x164>)
 8000e5e:	2201      	movs	r2, #1
 8000e60:	70da      	strb	r2, [r3, #3]
		USART3_TX_DMA_Flag.Transfer_Error_Flag = true;
 8000e62:	4b30      	ldr	r3, [pc, #192]	@ (8000f24 <DMA1_Stream3_IRQHandler+0x168>)
 8000e64:	2201      	movs	r2, #1
 8000e66:	70da      	strb	r2, [r3, #3]
		I2S2_RX_DMA_Flag.Transfer_Error_Flag = true;
 8000e68:	4b2f      	ldr	r3, [pc, #188]	@ (8000f28 <DMA1_Stream3_IRQHandler+0x16c>)
 8000e6a:	2201      	movs	r2, #1
 8000e6c:	70da      	strb	r2, [r3, #3]
		SPI2_RX_DMA_Flag.Transfer_Error_Flag = true;
 8000e6e:	4b2f      	ldr	r3, [pc, #188]	@ (8000f2c <DMA1_Stream3_IRQHandler+0x170>)
 8000e70:	2201      	movs	r2, #1
 8000e72:	70da      	strb	r2, [r3, #3]
		DMA1_Stream3_Flag.Transfer_Error_Flag = true;
 8000e74:	4b2e      	ldr	r3, [pc, #184]	@ (8000f30 <DMA1_Stream3_IRQHandler+0x174>)
 8000e76:	2201      	movs	r2, #1
 8000e78:	70da      	strb	r2, [r3, #3]
		DMA1 -> LIFCR |= DMA_LIFCR_CTEIF3;
 8000e7a:	4b26      	ldr	r3, [pc, #152]	@ (8000f14 <DMA1_Stream3_IRQHandler+0x158>)
 8000e7c:	689b      	ldr	r3, [r3, #8]
 8000e7e:	4a25      	ldr	r2, [pc, #148]	@ (8000f14 <DMA1_Stream3_IRQHandler+0x158>)
 8000e80:	f043 7300 	orr.w	r3, r3, #33554432	@ 0x2000000
 8000e84:	6093      	str	r3, [r2, #8]
	}
	/************************************************************************************************************/
	if(DMA1 -> LISR & DMA_LISR_HTIF3)
 8000e86:	4b23      	ldr	r3, [pc, #140]	@ (8000f14 <DMA1_Stream3_IRQHandler+0x158>)
 8000e88:	681b      	ldr	r3, [r3, #0]
 8000e8a:	f003 6380 	and.w	r3, r3, #67108864	@ 0x4000000
 8000e8e:	2b00      	cmp	r3, #0
 8000e90:	d01a      	beq.n	8000ec8 <DMA1_Stream3_IRQHandler+0x10c>
	{
		TIM5_TRIG_DMA_Flag.Half_Transfer_Complete_Flag = true;
 8000e92:	4b21      	ldr	r3, [pc, #132]	@ (8000f18 <DMA1_Stream3_IRQHandler+0x15c>)
 8000e94:	2201      	movs	r2, #1
 8000e96:	709a      	strb	r2, [r3, #2]
		TIM4_CH2_DMA_Flag.Half_Transfer_Complete_Flag = true;
 8000e98:	4b20      	ldr	r3, [pc, #128]	@ (8000f1c <DMA1_Stream3_IRQHandler+0x160>)
 8000e9a:	2201      	movs	r2, #1
 8000e9c:	709a      	strb	r2, [r3, #2]
		USART7_RX_DMA_Flag.Half_Transfer_Complete_Flag = true;
 8000e9e:	4b20      	ldr	r3, [pc, #128]	@ (8000f20 <DMA1_Stream3_IRQHandler+0x164>)
 8000ea0:	2201      	movs	r2, #1
 8000ea2:	709a      	strb	r2, [r3, #2]
		USART3_TX_DMA_Flag.Half_Transfer_Complete_Flag = true;
 8000ea4:	4b1f      	ldr	r3, [pc, #124]	@ (8000f24 <DMA1_Stream3_IRQHandler+0x168>)
 8000ea6:	2201      	movs	r2, #1
 8000ea8:	709a      	strb	r2, [r3, #2]
		I2S2_RX_DMA_Flag.Half_Transfer_Complete_Flag = true;
 8000eaa:	4b1f      	ldr	r3, [pc, #124]	@ (8000f28 <DMA1_Stream3_IRQHandler+0x16c>)
 8000eac:	2201      	movs	r2, #1
 8000eae:	709a      	strb	r2, [r3, #2]
		SPI2_RX_DMA_Flag.Half_Transfer_Complete_Flag = true;
 8000eb0:	4b1e      	ldr	r3, [pc, #120]	@ (8000f2c <DMA1_Stream3_IRQHandler+0x170>)
 8000eb2:	2201      	movs	r2, #1
 8000eb4:	709a      	strb	r2, [r3, #2]
		DMA1_Stream3_Flag.Half_Transfer_Complete_Flag = true;
 8000eb6:	4b1e      	ldr	r3, [pc, #120]	@ (8000f30 <DMA1_Stream3_IRQHandler+0x174>)
 8000eb8:	2201      	movs	r2, #1
 8000eba:	709a      	strb	r2, [r3, #2]
		DMA1 -> LIFCR |= DMA_LIFCR_CHTIF3;
 8000ebc:	4b15      	ldr	r3, [pc, #84]	@ (8000f14 <DMA1_Stream3_IRQHandler+0x158>)
 8000ebe:	689b      	ldr	r3, [r3, #8]
 8000ec0:	4a14      	ldr	r2, [pc, #80]	@ (8000f14 <DMA1_Stream3_IRQHandler+0x158>)
 8000ec2:	f043 6380 	orr.w	r3, r3, #67108864	@ 0x4000000
 8000ec6:	6093      	str	r3, [r2, #8]
	}
	/************************************************************************************************************/
	if(DMA1 -> LISR & DMA_LISR_TCIF3)
 8000ec8:	4b12      	ldr	r3, [pc, #72]	@ (8000f14 <DMA1_Stream3_IRQHandler+0x158>)
 8000eca:	681b      	ldr	r3, [r3, #0]
 8000ecc:	f003 6300 	and.w	r3, r3, #134217728	@ 0x8000000
 8000ed0:	2b00      	cmp	r3, #0
 8000ed2:	d01a      	beq.n	8000f0a <DMA1_Stream3_IRQHandler+0x14e>
	{
		TIM5_TRIG_DMA_Flag.Transfer_Complete_Flag = true;
 8000ed4:	4b10      	ldr	r3, [pc, #64]	@ (8000f18 <DMA1_Stream3_IRQHandler+0x15c>)
 8000ed6:	2201      	movs	r2, #1
 8000ed8:	705a      	strb	r2, [r3, #1]
		TIM4_CH2_DMA_Flag.Transfer_Complete_Flag = true;
 8000eda:	4b10      	ldr	r3, [pc, #64]	@ (8000f1c <DMA1_Stream3_IRQHandler+0x160>)
 8000edc:	2201      	movs	r2, #1
 8000ede:	705a      	strb	r2, [r3, #1]
		USART7_RX_DMA_Flag.Transfer_Complete_Flag = true;
 8000ee0:	4b0f      	ldr	r3, [pc, #60]	@ (8000f20 <DMA1_Stream3_IRQHandler+0x164>)
 8000ee2:	2201      	movs	r2, #1
 8000ee4:	705a      	strb	r2, [r3, #1]
		USART3_TX_DMA_Flag.Transfer_Complete_Flag = true;
 8000ee6:	4b0f      	ldr	r3, [pc, #60]	@ (8000f24 <DMA1_Stream3_IRQHandler+0x168>)
 8000ee8:	2201      	movs	r2, #1
 8000eea:	705a      	strb	r2, [r3, #1]
		I2S2_RX_DMA_Flag.Transfer_Complete_Flag = true;
 8000eec:	4b0e      	ldr	r3, [pc, #56]	@ (8000f28 <DMA1_Stream3_IRQHandler+0x16c>)
 8000eee:	2201      	movs	r2, #1
 8000ef0:	705a      	strb	r2, [r3, #1]
		SPI2_RX_DMA_Flag.Transfer_Complete_Flag = true;
 8000ef2:	4b0e      	ldr	r3, [pc, #56]	@ (8000f2c <DMA1_Stream3_IRQHandler+0x170>)
 8000ef4:	2201      	movs	r2, #1
 8000ef6:	705a      	strb	r2, [r3, #1]
		DMA1_Stream3_Flag.Transfer_Complete_Flag = true;
 8000ef8:	4b0d      	ldr	r3, [pc, #52]	@ (8000f30 <DMA1_Stream3_IRQHandler+0x174>)
 8000efa:	2201      	movs	r2, #1
 8000efc:	705a      	strb	r2, [r3, #1]
		DMA1 -> LIFCR |= DMA_LIFCR_CTCIF3;
 8000efe:	4b05      	ldr	r3, [pc, #20]	@ (8000f14 <DMA1_Stream3_IRQHandler+0x158>)
 8000f00:	689b      	ldr	r3, [r3, #8]
 8000f02:	4a04      	ldr	r2, [pc, #16]	@ (8000f14 <DMA1_Stream3_IRQHandler+0x158>)
 8000f04:	f043 6300 	orr.w	r3, r3, #134217728	@ 0x8000000
 8000f08:	6093      	str	r3, [r2, #8]
	}
}
 8000f0a:	bf00      	nop
 8000f0c:	46bd      	mov	sp, r7
 8000f0e:	f85d 7b04 	ldr.w	r7, [sp], #4
 8000f12:	4770      	bx	lr
 8000f14:	40026000 	.word	0x40026000
 8000f18:	200001d0 	.word	0x200001d0
 8000f1c:	200001b0 	.word	0x200001b0
 8000f20:	200000e0 	.word	0x200000e0
 8000f24:	200000b0 	.word	0x200000b0
 8000f28:	20000020 	.word	0x20000020
 8000f2c:	20000060 	.word	0x20000060
 8000f30:	20000228 	.word	0x20000228

08000f34 <DMA1_Stream4_IRQHandler>:
 * transfer error, half transfer complete, and transfer complete. For each
 * event, it sets the corresponding flag in the `DMA1_Stream4_Flag` structure
 * and clears the respective interrupt flag in the DMA interrupt flag clear register.
 */
void DMA1_Stream4_IRQHandler(void)
{
 8000f34:	b480      	push	{r7}
 8000f36:	af00      	add	r7, sp, #0
	if(DMA1 -> HISR & DMA_HISR_FEIF4)
 8000f38:	4b54      	ldr	r3, [pc, #336]	@ (800108c <DMA1_Stream4_IRQHandler+0x158>)
 8000f3a:	685b      	ldr	r3, [r3, #4]
 8000f3c:	f003 0301 	and.w	r3, r3, #1
 8000f40:	2b00      	cmp	r3, #0
 8000f42:	d01a      	beq.n	8000f7a <DMA1_Stream4_IRQHandler+0x46>
	{
		TIM5_CH2_DMA_Flag.Fifo_Error_Flag = true;
 8000f44:	4b52      	ldr	r3, [pc, #328]	@ (8001090 <DMA1_Stream4_IRQHandler+0x15c>)
 8000f46:	2201      	movs	r2, #1
 8000f48:	715a      	strb	r2, [r3, #5]
		TIM3_CH1_DMA_Flag.Fifo_Error_Flag = true;
 8000f4a:	4b52      	ldr	r3, [pc, #328]	@ (8001094 <DMA1_Stream4_IRQHandler+0x160>)
 8000f4c:	2201      	movs	r2, #1
 8000f4e:	715a      	strb	r2, [r3, #5]
		USART4_TX_DMA_Flag.Fifo_Error_Flag = true;
 8000f50:	4b51      	ldr	r3, [pc, #324]	@ (8001098 <DMA1_Stream4_IRQHandler+0x164>)
 8000f52:	2201      	movs	r2, #1
 8000f54:	715a      	strb	r2, [r3, #5]
		I2C3_TX_DMA_Flag.Fifo_Error_Flag = true;
 8000f56:	4b51      	ldr	r3, [pc, #324]	@ (800109c <DMA1_Stream4_IRQHandler+0x168>)
 8000f58:	2201      	movs	r2, #1
 8000f5a:	715a      	strb	r2, [r3, #5]
		I2S2_TX_DMA_Flag.Fifo_Error_Flag = true;
 8000f5c:	4b50      	ldr	r3, [pc, #320]	@ (80010a0 <DMA1_Stream4_IRQHandler+0x16c>)
 8000f5e:	2201      	movs	r2, #1
 8000f60:	715a      	strb	r2, [r3, #5]
		SPI2_TX_DMA_Flag.Fifo_Error_Flag = true;
 8000f62:	4b50      	ldr	r3, [pc, #320]	@ (80010a4 <DMA1_Stream4_IRQHandler+0x170>)
 8000f64:	2201      	movs	r2, #1
 8000f66:	715a      	strb	r2, [r3, #5]
		DMA1_Stream4_Flag.Fifo_Error_Flag = true;
 8000f68:	4b4f      	ldr	r3, [pc, #316]	@ (80010a8 <DMA1_Stream4_IRQHandler+0x174>)
 8000f6a:	2201      	movs	r2, #1
 8000f6c:	715a      	strb	r2, [r3, #5]
		DMA1 -> HIFCR |= DMA_HIFCR_CFEIF4;
 8000f6e:	4b47      	ldr	r3, [pc, #284]	@ (800108c <DMA1_Stream4_IRQHandler+0x158>)
 8000f70:	68db      	ldr	r3, [r3, #12]
 8000f72:	4a46      	ldr	r2, [pc, #280]	@ (800108c <DMA1_Stream4_IRQHandler+0x158>)
 8000f74:	f043 0301 	orr.w	r3, r3, #1
 8000f78:	60d3      	str	r3, [r2, #12]
	}
	/************************************************************************************************************/
	if(DMA1 -> HISR & DMA_HISR_DMEIF4)
 8000f7a:	4b44      	ldr	r3, [pc, #272]	@ (800108c <DMA1_Stream4_IRQHandler+0x158>)
 8000f7c:	685b      	ldr	r3, [r3, #4]
 8000f7e:	f003 0304 	and.w	r3, r3, #4
 8000f82:	2b00      	cmp	r3, #0
 8000f84:	d01a      	beq.n	8000fbc <DMA1_Stream4_IRQHandler+0x88>
	{
		TIM5_CH2_DMA_Flag.Direct_Mode_Error_Flag = true;
 8000f86:	4b42      	ldr	r3, [pc, #264]	@ (8001090 <DMA1_Stream4_IRQHandler+0x15c>)
 8000f88:	2201      	movs	r2, #1
 8000f8a:	711a      	strb	r2, [r3, #4]
		TIM3_CH1_DMA_Flag.Direct_Mode_Error_Flag = true;
 8000f8c:	4b41      	ldr	r3, [pc, #260]	@ (8001094 <DMA1_Stream4_IRQHandler+0x160>)
 8000f8e:	2201      	movs	r2, #1
 8000f90:	711a      	strb	r2, [r3, #4]
		USART4_TX_DMA_Flag.Direct_Mode_Error_Flag = true;
 8000f92:	4b41      	ldr	r3, [pc, #260]	@ (8001098 <DMA1_Stream4_IRQHandler+0x164>)
 8000f94:	2201      	movs	r2, #1
 8000f96:	711a      	strb	r2, [r3, #4]
		I2C3_TX_DMA_Flag.Direct_Mode_Error_Flag = true;
 8000f98:	4b40      	ldr	r3, [pc, #256]	@ (800109c <DMA1_Stream4_IRQHandler+0x168>)
 8000f9a:	2201      	movs	r2, #1
 8000f9c:	711a      	strb	r2, [r3, #4]
		I2S2_TX_DMA_Flag.Direct_Mode_Error_Flag = true;
 8000f9e:	4b40      	ldr	r3, [pc, #256]	@ (80010a0 <DMA1_Stream4_IRQHandler+0x16c>)
 8000fa0:	2201      	movs	r2, #1
 8000fa2:	711a      	strb	r2, [r3, #4]
		SPI2_TX_DMA_Flag.Direct_Mode_Error_Flag = true;
 8000fa4:	4b3f      	ldr	r3, [pc, #252]	@ (80010a4 <DMA1_Stream4_IRQHandler+0x170>)
 8000fa6:	2201      	movs	r2, #1
 8000fa8:	711a      	strb	r2, [r3, #4]
		DMA1_Stream4_Flag.Direct_Mode_Error_Flag = true;
 8000faa:	4b3f      	ldr	r3, [pc, #252]	@ (80010a8 <DMA1_Stream4_IRQHandler+0x174>)
 8000fac:	2201      	movs	r2, #1
 8000fae:	711a      	strb	r2, [r3, #4]
		DMA1 -> HIFCR |= DMA_HIFCR_CDMEIF4;
 8000fb0:	4b36      	ldr	r3, [pc, #216]	@ (800108c <DMA1_Stream4_IRQHandler+0x158>)
 8000fb2:	68db      	ldr	r3, [r3, #12]
 8000fb4:	4a35      	ldr	r2, [pc, #212]	@ (800108c <DMA1_Stream4_IRQHandler+0x158>)
 8000fb6:	f043 0304 	orr.w	r3, r3, #4
 8000fba:	60d3      	str	r3, [r2, #12]
	}
	/************************************************************************************************************/
	if(DMA1 -> HISR & DMA_HISR_TEIF4)
 8000fbc:	4b33      	ldr	r3, [pc, #204]	@ (800108c <DMA1_Stream4_IRQHandler+0x158>)
 8000fbe:	685b      	ldr	r3, [r3, #4]
 8000fc0:	f003 0308 	and.w	r3, r3, #8
 8000fc4:	2b00      	cmp	r3, #0
 8000fc6:	d01a      	beq.n	8000ffe <DMA1_Stream4_IRQHandler+0xca>
	{
		TIM5_CH2_DMA_Flag.Transfer_Error_Flag = true;
 8000fc8:	4b31      	ldr	r3, [pc, #196]	@ (8001090 <DMA1_Stream4_IRQHandler+0x15c>)
 8000fca:	2201      	movs	r2, #1
 8000fcc:	70da      	strb	r2, [r3, #3]
		TIM3_CH1_DMA_Flag.Transfer_Error_Flag = true;
 8000fce:	4b31      	ldr	r3, [pc, #196]	@ (8001094 <DMA1_Stream4_IRQHandler+0x160>)
 8000fd0:	2201      	movs	r2, #1
 8000fd2:	70da      	strb	r2, [r3, #3]
		USART4_TX_DMA_Flag.Transfer_Error_Flag = true;
 8000fd4:	4b30      	ldr	r3, [pc, #192]	@ (8001098 <DMA1_Stream4_IRQHandler+0x164>)
 8000fd6:	2201      	movs	r2, #1
 8000fd8:	70da      	strb	r2, [r3, #3]
		I2C3_TX_DMA_Flag.Transfer_Error_Flag = true;
 8000fda:	4b30      	ldr	r3, [pc, #192]	@ (800109c <DMA1_Stream4_IRQHandler+0x168>)
 8000fdc:	2201      	movs	r2, #1
 8000fde:	70da      	strb	r2, [r3, #3]
		I2S2_TX_DMA_Flag.Transfer_Error_Flag = true;
 8000fe0:	4b2f      	ldr	r3, [pc, #188]	@ (80010a0 <DMA1_Stream4_IRQHandler+0x16c>)
 8000fe2:	2201      	movs	r2, #1
 8000fe4:	70da      	strb	r2, [r3, #3]
		SPI2_TX_DMA_Flag.Transfer_Error_Flag = true;
 8000fe6:	4b2f      	ldr	r3, [pc, #188]	@ (80010a4 <DMA1_Stream4_IRQHandler+0x170>)
 8000fe8:	2201      	movs	r2, #1
 8000fea:	70da      	strb	r2, [r3, #3]
		DMA1_Stream4_Flag.Transfer_Error_Flag = true;
 8000fec:	4b2e      	ldr	r3, [pc, #184]	@ (80010a8 <DMA1_Stream4_IRQHandler+0x174>)
 8000fee:	2201      	movs	r2, #1
 8000ff0:	70da      	strb	r2, [r3, #3]
		DMA1 -> HIFCR |= DMA_HIFCR_CTEIF4;
 8000ff2:	4b26      	ldr	r3, [pc, #152]	@ (800108c <DMA1_Stream4_IRQHandler+0x158>)
 8000ff4:	68db      	ldr	r3, [r3, #12]
 8000ff6:	4a25      	ldr	r2, [pc, #148]	@ (800108c <DMA1_Stream4_IRQHandler+0x158>)
 8000ff8:	f043 0308 	orr.w	r3, r3, #8
 8000ffc:	60d3      	str	r3, [r2, #12]
	}
	/************************************************************************************************************/
	if(DMA1 -> HISR & DMA_HISR_HTIF4)
 8000ffe:	4b23      	ldr	r3, [pc, #140]	@ (800108c <DMA1_Stream4_IRQHandler+0x158>)
 8001000:	685b      	ldr	r3, [r3, #4]
 8001002:	f003 0310 	and.w	r3, r3, #16
 8001006:	2b00      	cmp	r3, #0
 8001008:	d01a      	beq.n	8001040 <DMA1_Stream4_IRQHandler+0x10c>
	{
		TIM5_CH2_DMA_Flag.Half_Transfer_Complete_Flag = true;
 800100a:	4b21      	ldr	r3, [pc, #132]	@ (8001090 <DMA1_Stream4_IRQHandler+0x15c>)
 800100c:	2201      	movs	r2, #1
 800100e:	709a      	strb	r2, [r3, #2]
		TIM3_CH1_DMA_Flag.Half_Transfer_Complete_Flag = true;
 8001010:	4b20      	ldr	r3, [pc, #128]	@ (8001094 <DMA1_Stream4_IRQHandler+0x160>)
 8001012:	2201      	movs	r2, #1
 8001014:	709a      	strb	r2, [r3, #2]
		USART4_TX_DMA_Flag.Half_Transfer_Complete_Flag = true;
 8001016:	4b20      	ldr	r3, [pc, #128]	@ (8001098 <DMA1_Stream4_IRQHandler+0x164>)
 8001018:	2201      	movs	r2, #1
 800101a:	709a      	strb	r2, [r3, #2]
		I2C3_TX_DMA_Flag.Half_Transfer_Complete_Flag = true;
 800101c:	4b1f      	ldr	r3, [pc, #124]	@ (800109c <DMA1_Stream4_IRQHandler+0x168>)
 800101e:	2201      	movs	r2, #1
 8001020:	709a      	strb	r2, [r3, #2]
		I2S2_TX_DMA_Flag.Half_Transfer_Complete_Flag = true;
 8001022:	4b1f      	ldr	r3, [pc, #124]	@ (80010a0 <DMA1_Stream4_IRQHandler+0x16c>)
 8001024:	2201      	movs	r2, #1
 8001026:	709a      	strb	r2, [r3, #2]
		SPI2_TX_DMA_Flag.Half_Transfer_Complete_Flag = true;
 8001028:	4b1e      	ldr	r3, [pc, #120]	@ (80010a4 <DMA1_Stream4_IRQHandler+0x170>)
 800102a:	2201      	movs	r2, #1
 800102c:	709a      	strb	r2, [r3, #2]
		DMA1_Stream4_Flag.Half_Transfer_Complete_Flag = true;
 800102e:	4b1e      	ldr	r3, [pc, #120]	@ (80010a8 <DMA1_Stream4_IRQHandler+0x174>)
 8001030:	2201      	movs	r2, #1
 8001032:	709a      	strb	r2, [r3, #2]
		DMA1 -> HIFCR |= DMA_HIFCR_CHTIF4;
 8001034:	4b15      	ldr	r3, [pc, #84]	@ (800108c <DMA1_Stream4_IRQHandler+0x158>)
 8001036:	68db      	ldr	r3, [r3, #12]
 8001038:	4a14      	ldr	r2, [pc, #80]	@ (800108c <DMA1_Stream4_IRQHandler+0x158>)
 800103a:	f043 0310 	orr.w	r3, r3, #16
 800103e:	60d3      	str	r3, [r2, #12]
	}
	/************************************************************************************************************/
	if(DMA1 -> HISR & DMA_HISR_TCIF4)
 8001040:	4b12      	ldr	r3, [pc, #72]	@ (800108c <DMA1_Stream4_IRQHandler+0x158>)
 8001042:	685b      	ldr	r3, [r3, #4]
 8001044:	f003 0320 	and.w	r3, r3, #32
 8001048:	2b00      	cmp	r3, #0
 800104a:	d01a      	beq.n	8001082 <DMA1_Stream4_IRQHandler+0x14e>
	{
		TIM5_CH2_DMA_Flag.Transfer_Complete_Flag = true;
 800104c:	4b10      	ldr	r3, [pc, #64]	@ (8001090 <DMA1_Stream4_IRQHandler+0x15c>)
 800104e:	2201      	movs	r2, #1
 8001050:	705a      	strb	r2, [r3, #1]
		TIM3_CH1_DMA_Flag.Transfer_Complete_Flag = true;
 8001052:	4b10      	ldr	r3, [pc, #64]	@ (8001094 <DMA1_Stream4_IRQHandler+0x160>)
 8001054:	2201      	movs	r2, #1
 8001056:	705a      	strb	r2, [r3, #1]
		USART4_TX_DMA_Flag.Transfer_Complete_Flag = true;
 8001058:	4b0f      	ldr	r3, [pc, #60]	@ (8001098 <DMA1_Stream4_IRQHandler+0x164>)
 800105a:	2201      	movs	r2, #1
 800105c:	705a      	strb	r2, [r3, #1]
		I2C3_TX_DMA_Flag.Transfer_Complete_Flag = true;
 800105e:	4b0f      	ldr	r3, [pc, #60]	@ (800109c <DMA1_Stream4_IRQHandler+0x168>)
 8001060:	2201      	movs	r2, #1
 8001062:	705a      	strb	r2, [r3, #1]
		I2S2_TX_DMA_Flag.Transfer_Complete_Flag = true;
 8001064:	4b0e      	ldr	r3, [pc, #56]	@ (80010a0 <DMA1_Stream4_IRQHandler+0x16c>)
 8001066:	2201      	movs	r2, #1
 8001068:	705a      	strb	r2, [r3, #1]
		SPI2_TX_DMA_Flag.Transfer_Complete_Flag = true;
 800106a:	4b0e      	ldr	r3, [pc, #56]	@ (80010a4 <DMA1_Stream4_IRQHandler+0x170>)
 800106c:	2201      	movs	r2, #1
 800106e:	705a      	strb	r2, [r3, #1]
		DMA1_Stream4_Flag.Transfer_Complete_Flag = true;
 8001070:	4b0d      	ldr	r3, [pc, #52]	@ (80010a8 <DMA1_Stream4_IRQHandler+0x174>)
 8001072:	2201      	movs	r2, #1
 8001074:	705a      	strb	r2, [r3, #1]
		DMA1 -> HIFCR |= DMA_HIFCR_CTCIF4;
 8001076:	4b05      	ldr	r3, [pc, #20]	@ (800108c <DMA1_Stream4_IRQHandler+0x158>)
 8001078:	68db      	ldr	r3, [r3, #12]
 800107a:	4a04      	ldr	r2, [pc, #16]	@ (800108c <DMA1_Stream4_IRQHandler+0x158>)
 800107c:	f043 0320 	orr.w	r3, r3, #32
 8001080:	60d3      	str	r3, [r2, #12]
	}
}
 8001082:	bf00      	nop
 8001084:	46bd      	mov	sp, r7
 8001086:	f85d 7b04 	ldr.w	r7, [sp], #4
 800108a:	4770      	bx	lr
 800108c:	40026000 	.word	0x40026000
 8001090:	200001c0 	.word	0x200001c0
 8001094:	20000188 	.word	0x20000188
 8001098:	200000b8 	.word	0x200000b8
 800109c:	20000050 	.word	0x20000050
 80010a0:	20000028 	.word	0x20000028
 80010a4:	20000078 	.word	0x20000078
 80010a8:	20000230 	.word	0x20000230

080010ac <DMA1_Stream5_IRQHandler>:
 * transfer error, half transfer complete, and transfer complete. For each
 * event, it sets the corresponding flag in the `DMA1_Stream5_Flag` structure
 * and clears the respective interrupt flag in the DMA interrupt flag clear register.
 */
void DMA1_Stream5_IRQHandler(void)
{
 80010ac:	b480      	push	{r7}
 80010ae:	af00      	add	r7, sp, #0
	if(DMA1 -> HISR & DMA_HISR_FEIF5)
 80010b0:	4b56      	ldr	r3, [pc, #344]	@ (800120c <DMA1_Stream5_IRQHandler+0x160>)
 80010b2:	685b      	ldr	r3, [r3, #4]
 80010b4:	f003 0340 	and.w	r3, r3, #64	@ 0x40
 80010b8:	2b00      	cmp	r3, #0
 80010ba:	d01a      	beq.n	80010f2 <DMA1_Stream5_IRQHandler+0x46>
	{
		SPI3_TX_DMA_Flag.Fifo_Error_Flag = true;
 80010bc:	4b54      	ldr	r3, [pc, #336]	@ (8001210 <DMA1_Stream5_IRQHandler+0x164>)
 80010be:	2201      	movs	r2, #1
 80010c0:	715a      	strb	r2, [r3, #5]
		TIM3_TRIG_DMA_Flag.Fifo_Error_Flag = true;
 80010c2:	4b54      	ldr	r3, [pc, #336]	@ (8001214 <DMA1_Stream5_IRQHandler+0x168>)
 80010c4:	2201      	movs	r2, #1
 80010c6:	715a      	strb	r2, [r3, #5]
		TIM2_CH1_DMA_Flag.Fifo_Error_Flag =  true;
 80010c8:	4b53      	ldr	r3, [pc, #332]	@ (8001218 <DMA1_Stream5_IRQHandler+0x16c>)
 80010ca:	2201      	movs	r2, #1
 80010cc:	715a      	strb	r2, [r3, #5]
		DAC2_DMA_Flag.Fifo_Error_Flag = true;
 80010ce:	4b53      	ldr	r3, [pc, #332]	@ (800121c <DMA1_Stream5_IRQHandler+0x170>)
 80010d0:	2201      	movs	r2, #1
 80010d2:	715a      	strb	r2, [r3, #5]
		TIM3_CH2_DMA_Flag.Fifo_Error_Flag = true;
 80010d4:	4b52      	ldr	r3, [pc, #328]	@ (8001220 <DMA1_Stream5_IRQHandler+0x174>)
 80010d6:	2201      	movs	r2, #1
 80010d8:	715a      	strb	r2, [r3, #5]
		USART2_RX_DMA_Flag.Fifo_Error_Flag = true;
 80010da:	4b52      	ldr	r3, [pc, #328]	@ (8001224 <DMA1_Stream5_IRQHandler+0x178>)
 80010dc:	2201      	movs	r2, #1
 80010de:	715a      	strb	r2, [r3, #5]
		DMA1_Stream5_Flag.Fifo_Error_Flag = true;
 80010e0:	4b51      	ldr	r3, [pc, #324]	@ (8001228 <DMA1_Stream5_IRQHandler+0x17c>)
 80010e2:	2201      	movs	r2, #1
 80010e4:	715a      	strb	r2, [r3, #5]
		DMA1 -> HIFCR |= DMA_HIFCR_CFEIF5;
 80010e6:	4b49      	ldr	r3, [pc, #292]	@ (800120c <DMA1_Stream5_IRQHandler+0x160>)
 80010e8:	68db      	ldr	r3, [r3, #12]
 80010ea:	4a48      	ldr	r2, [pc, #288]	@ (800120c <DMA1_Stream5_IRQHandler+0x160>)
 80010ec:	f043 0340 	orr.w	r3, r3, #64	@ 0x40
 80010f0:	60d3      	str	r3, [r2, #12]
	}
	/************************************************************************************************************/
	if(DMA1 -> HISR & DMA_HISR_DMEIF5)
 80010f2:	4b46      	ldr	r3, [pc, #280]	@ (800120c <DMA1_Stream5_IRQHandler+0x160>)
 80010f4:	685b      	ldr	r3, [r3, #4]
 80010f6:	f403 7380 	and.w	r3, r3, #256	@ 0x100
 80010fa:	2b00      	cmp	r3, #0
 80010fc:	d01a      	beq.n	8001134 <DMA1_Stream5_IRQHandler+0x88>
	{
		SPI3_TX_DMA_Flag.Direct_Mode_Error_Flag = true;
 80010fe:	4b44      	ldr	r3, [pc, #272]	@ (8001210 <DMA1_Stream5_IRQHandler+0x164>)
 8001100:	2201      	movs	r2, #1
 8001102:	711a      	strb	r2, [r3, #4]
		TIM3_TRIG_DMA_Flag.Direct_Mode_Error_Flag = true;
 8001104:	4b43      	ldr	r3, [pc, #268]	@ (8001214 <DMA1_Stream5_IRQHandler+0x168>)
 8001106:	2201      	movs	r2, #1
 8001108:	711a      	strb	r2, [r3, #4]
		TIM2_CH1_DMA_Flag.Direct_Mode_Error_Flag =  true;
 800110a:	4b43      	ldr	r3, [pc, #268]	@ (8001218 <DMA1_Stream5_IRQHandler+0x16c>)
 800110c:	2201      	movs	r2, #1
 800110e:	711a      	strb	r2, [r3, #4]
		DAC2_DMA_Flag.Direct_Mode_Error_Flag = true;
 8001110:	4b42      	ldr	r3, [pc, #264]	@ (800121c <DMA1_Stream5_IRQHandler+0x170>)
 8001112:	2201      	movs	r2, #1
 8001114:	711a      	strb	r2, [r3, #4]
		TIM3_CH2_DMA_Flag.Direct_Mode_Error_Flag = true;
 8001116:	4b42      	ldr	r3, [pc, #264]	@ (8001220 <DMA1_Stream5_IRQHandler+0x174>)
 8001118:	2201      	movs	r2, #1
 800111a:	711a      	strb	r2, [r3, #4]
		USART2_RX_DMA_Flag.Direct_Mode_Error_Flag = true;
 800111c:	4b41      	ldr	r3, [pc, #260]	@ (8001224 <DMA1_Stream5_IRQHandler+0x178>)
 800111e:	2201      	movs	r2, #1
 8001120:	711a      	strb	r2, [r3, #4]
		DMA1_Stream5_Flag.Direct_Mode_Error_Flag = true;
 8001122:	4b41      	ldr	r3, [pc, #260]	@ (8001228 <DMA1_Stream5_IRQHandler+0x17c>)
 8001124:	2201      	movs	r2, #1
 8001126:	711a      	strb	r2, [r3, #4]
		DMA1 -> HIFCR |= DMA_HIFCR_CDMEIF5;
 8001128:	4b38      	ldr	r3, [pc, #224]	@ (800120c <DMA1_Stream5_IRQHandler+0x160>)
 800112a:	68db      	ldr	r3, [r3, #12]
 800112c:	4a37      	ldr	r2, [pc, #220]	@ (800120c <DMA1_Stream5_IRQHandler+0x160>)
 800112e:	f443 7380 	orr.w	r3, r3, #256	@ 0x100
 8001132:	60d3      	str	r3, [r2, #12]
	}
	/************************************************************************************************************/
	if(DMA1 -> HISR & DMA_HISR_TEIF5)
 8001134:	4b35      	ldr	r3, [pc, #212]	@ (800120c <DMA1_Stream5_IRQHandler+0x160>)
 8001136:	685b      	ldr	r3, [r3, #4]
 8001138:	f403 7300 	and.w	r3, r3, #512	@ 0x200
 800113c:	2b00      	cmp	r3, #0
 800113e:	d01a      	beq.n	8001176 <DMA1_Stream5_IRQHandler+0xca>
	{
		SPI3_TX_DMA_Flag.Transfer_Error_Flag = true;
 8001140:	4b33      	ldr	r3, [pc, #204]	@ (8001210 <DMA1_Stream5_IRQHandler+0x164>)
 8001142:	2201      	movs	r2, #1
 8001144:	70da      	strb	r2, [r3, #3]
		TIM3_TRIG_DMA_Flag.Transfer_Error_Flag = true;
 8001146:	4b33      	ldr	r3, [pc, #204]	@ (8001214 <DMA1_Stream5_IRQHandler+0x168>)
 8001148:	2201      	movs	r2, #1
 800114a:	70da      	strb	r2, [r3, #3]
		TIM2_CH1_DMA_Flag.Transfer_Error_Flag =  true;
 800114c:	4b32      	ldr	r3, [pc, #200]	@ (8001218 <DMA1_Stream5_IRQHandler+0x16c>)
 800114e:	2201      	movs	r2, #1
 8001150:	70da      	strb	r2, [r3, #3]
		DAC2_DMA_Flag.Transfer_Error_Flag = true;
 8001152:	4b32      	ldr	r3, [pc, #200]	@ (800121c <DMA1_Stream5_IRQHandler+0x170>)
 8001154:	2201      	movs	r2, #1
 8001156:	70da      	strb	r2, [r3, #3]
		TIM3_CH2_DMA_Flag.Transfer_Error_Flag = true;
 8001158:	4b31      	ldr	r3, [pc, #196]	@ (8001220 <DMA1_Stream5_IRQHandler+0x174>)
 800115a:	2201      	movs	r2, #1
 800115c:	70da      	strb	r2, [r3, #3]
		USART2_RX_DMA_Flag.Transfer_Error_Flag = true;
 800115e:	4b31      	ldr	r3, [pc, #196]	@ (8001224 <DMA1_Stream5_IRQHandler+0x178>)
 8001160:	2201      	movs	r2, #1
 8001162:	70da      	strb	r2, [r3, #3]
		DMA1_Stream5_Flag.Transfer_Error_Flag = true;
 8001164:	4b30      	ldr	r3, [pc, #192]	@ (8001228 <DMA1_Stream5_IRQHandler+0x17c>)
 8001166:	2201      	movs	r2, #1
 8001168:	70da      	strb	r2, [r3, #3]
		DMA1 -> HIFCR |= DMA_HIFCR_CTEIF5;
 800116a:	4b28      	ldr	r3, [pc, #160]	@ (800120c <DMA1_Stream5_IRQHandler+0x160>)
 800116c:	68db      	ldr	r3, [r3, #12]
 800116e:	4a27      	ldr	r2, [pc, #156]	@ (800120c <DMA1_Stream5_IRQHandler+0x160>)
 8001170:	f443 7300 	orr.w	r3, r3, #512	@ 0x200
 8001174:	60d3      	str	r3, [r2, #12]
	}
	/************************************************************************************************************/
	if(DMA1 -> HISR & DMA_HISR_HTIF5)
 8001176:	4b25      	ldr	r3, [pc, #148]	@ (800120c <DMA1_Stream5_IRQHandler+0x160>)
 8001178:	685b      	ldr	r3, [r3, #4]
 800117a:	f403 6380 	and.w	r3, r3, #1024	@ 0x400
 800117e:	2b00      	cmp	r3, #0
 8001180:	d01a      	beq.n	80011b8 <DMA1_Stream5_IRQHandler+0x10c>
	{
		SPI3_TX_DMA_Flag.Half_Transfer_Complete_Flag = true;
 8001182:	4b23      	ldr	r3, [pc, #140]	@ (8001210 <DMA1_Stream5_IRQHandler+0x164>)
 8001184:	2201      	movs	r2, #1
 8001186:	709a      	strb	r2, [r3, #2]
		TIM3_TRIG_DMA_Flag.Half_Transfer_Complete_Flag = true;
 8001188:	4b22      	ldr	r3, [pc, #136]	@ (8001214 <DMA1_Stream5_IRQHandler+0x168>)
 800118a:	2201      	movs	r2, #1
 800118c:	709a      	strb	r2, [r3, #2]
		TIM2_CH1_DMA_Flag.Half_Transfer_Complete_Flag =  true;
 800118e:	4b22      	ldr	r3, [pc, #136]	@ (8001218 <DMA1_Stream5_IRQHandler+0x16c>)
 8001190:	2201      	movs	r2, #1
 8001192:	709a      	strb	r2, [r3, #2]
		DAC2_DMA_Flag.Half_Transfer_Complete_Flag = true;
 8001194:	4b21      	ldr	r3, [pc, #132]	@ (800121c <DMA1_Stream5_IRQHandler+0x170>)
 8001196:	2201      	movs	r2, #1
 8001198:	709a      	strb	r2, [r3, #2]
		TIM3_CH2_DMA_Flag.Half_Transfer_Complete_Flag = true;
 800119a:	4b21      	ldr	r3, [pc, #132]	@ (8001220 <DMA1_Stream5_IRQHandler+0x174>)
 800119c:	2201      	movs	r2, #1
 800119e:	709a      	strb	r2, [r3, #2]
		USART2_RX_DMA_Flag.Half_Transfer_Complete_Flag = true;
 80011a0:	4b20      	ldr	r3, [pc, #128]	@ (8001224 <DMA1_Stream5_IRQHandler+0x178>)
 80011a2:	2201      	movs	r2, #1
 80011a4:	709a      	strb	r2, [r3, #2]
		DMA1_Stream5_Flag.Half_Transfer_Complete_Flag = true;
 80011a6:	4b20      	ldr	r3, [pc, #128]	@ (8001228 <DMA1_Stream5_IRQHandler+0x17c>)
 80011a8:	2201      	movs	r2, #1
 80011aa:	709a      	strb	r2, [r3, #2]
		DMA1 -> HIFCR |= DMA_HIFCR_CHTIF5;
 80011ac:	4b17      	ldr	r3, [pc, #92]	@ (800120c <DMA1_Stream5_IRQHandler+0x160>)
 80011ae:	68db      	ldr	r3, [r3, #12]
 80011b0:	4a16      	ldr	r2, [pc, #88]	@ (800120c <DMA1_Stream5_IRQHandler+0x160>)
 80011b2:	f443 6380 	orr.w	r3, r3, #1024	@ 0x400
 80011b6:	60d3      	str	r3, [r2, #12]
	}
	/************************************************************************************************************/
	if(DMA1 -> HISR & DMA_HISR_TCIF5)
 80011b8:	4b14      	ldr	r3, [pc, #80]	@ (800120c <DMA1_Stream5_IRQHandler+0x160>)
 80011ba:	685b      	ldr	r3, [r3, #4]
 80011bc:	f403 6300 	and.w	r3, r3, #2048	@ 0x800
 80011c0:	2b00      	cmp	r3, #0
 80011c2:	d01d      	beq.n	8001200 <DMA1_Stream5_IRQHandler+0x154>
	{
		I2C1_RX_DMA_Flag.Transfer_Complete_Flag = true;
 80011c4:	4b19      	ldr	r3, [pc, #100]	@ (800122c <DMA1_Stream5_IRQHandler+0x180>)
 80011c6:	2201      	movs	r2, #1
 80011c8:	705a      	strb	r2, [r3, #1]
		SPI3_TX_DMA_Flag.Transfer_Complete_Flag = true;
 80011ca:	4b11      	ldr	r3, [pc, #68]	@ (8001210 <DMA1_Stream5_IRQHandler+0x164>)
 80011cc:	2201      	movs	r2, #1
 80011ce:	705a      	strb	r2, [r3, #1]
		TIM3_TRIG_DMA_Flag.Transfer_Complete_Flag = true;
 80011d0:	4b10      	ldr	r3, [pc, #64]	@ (8001214 <DMA1_Stream5_IRQHandler+0x168>)
 80011d2:	2201      	movs	r2, #1
 80011d4:	705a      	strb	r2, [r3, #1]
		TIM2_CH1_DMA_Flag.Transfer_Complete_Flag =  true;
 80011d6:	4b10      	ldr	r3, [pc, #64]	@ (8001218 <DMA1_Stream5_IRQHandler+0x16c>)
 80011d8:	2201      	movs	r2, #1
 80011da:	705a      	strb	r2, [r3, #1]
		DAC2_DMA_Flag.Transfer_Complete_Flag = true;
 80011dc:	4b0f      	ldr	r3, [pc, #60]	@ (800121c <DMA1_Stream5_IRQHandler+0x170>)
 80011de:	2201      	movs	r2, #1
 80011e0:	705a      	strb	r2, [r3, #1]
		TIM3_CH2_DMA_Flag.Transfer_Complete_Flag = true;
 80011e2:	4b0f      	ldr	r3, [pc, #60]	@ (8001220 <DMA1_Stream5_IRQHandler+0x174>)
 80011e4:	2201      	movs	r2, #1
 80011e6:	705a      	strb	r2, [r3, #1]
		USART2_RX_DMA_Flag.Transfer_Complete_Flag = true;
 80011e8:	4b0e      	ldr	r3, [pc, #56]	@ (8001224 <DMA1_Stream5_IRQHandler+0x178>)
 80011ea:	2201      	movs	r2, #1
 80011ec:	705a      	strb	r2, [r3, #1]
		DMA1_Stream5_Flag.Transfer_Complete_Flag = true;
 80011ee:	4b0e      	ldr	r3, [pc, #56]	@ (8001228 <DMA1_Stream5_IRQHandler+0x17c>)
 80011f0:	2201      	movs	r2, #1
 80011f2:	705a      	strb	r2, [r3, #1]
		DMA1 -> HIFCR |= DMA_HIFCR_CTCIF5;
 80011f4:	4b05      	ldr	r3, [pc, #20]	@ (800120c <DMA1_Stream5_IRQHandler+0x160>)
 80011f6:	68db      	ldr	r3, [r3, #12]
 80011f8:	4a04      	ldr	r2, [pc, #16]	@ (800120c <DMA1_Stream5_IRQHandler+0x160>)
 80011fa:	f443 6300 	orr.w	r3, r3, #2048	@ 0x800
 80011fe:	60d3      	str	r3, [r2, #12]
	}
}
 8001200:	bf00      	nop
 8001202:	46bd      	mov	sp, r7
 8001204:	f85d 7b04 	ldr.w	r7, [sp], #4
 8001208:	4770      	bx	lr
 800120a:	bf00      	nop
 800120c:	40026000 	.word	0x40026000
 8001210:	20000080 	.word	0x20000080
 8001214:	200001a0 	.word	0x200001a0
 8001218:	20000168 	.word	0x20000168
 800121c:	200001e0 	.word	0x200001e0
 8001220:	20000190 	.word	0x20000190
 8001224:	20000098 	.word	0x20000098
 8001228:	20000238 	.word	0x20000238
 800122c:	20000038 	.word	0x20000038

08001230 <DMA1_Stream6_IRQHandler>:
 * transfer error, half transfer complete, and transfer complete. For each
 * event, it sets the corresponding flag in the `DMA1_Stream6_Flag` structure
 * and clears the respective interrupt flag in the DMA interrupt flag clear register.
 */
void DMA1_Stream6_IRQHandler(void)
{
 8001230:	b480      	push	{r7}
 8001232:	af00      	add	r7, sp, #0
	if(DMA1 -> HISR & DMA_HISR_FEIF6)
 8001234:	4b47      	ldr	r3, [pc, #284]	@ (8001354 <DMA1_Stream6_IRQHandler+0x124>)
 8001236:	685b      	ldr	r3, [r3, #4]
 8001238:	f403 3380 	and.w	r3, r3, #65536	@ 0x10000
 800123c:	2b00      	cmp	r3, #0
 800123e:	d017      	beq.n	8001270 <DMA1_Stream6_IRQHandler+0x40>
	{
		TIM3_CH3_DMA_Flag.Fifo_Error_Flag = true;
 8001240:	4b45      	ldr	r3, [pc, #276]	@ (8001358 <DMA1_Stream6_IRQHandler+0x128>)
 8001242:	2201      	movs	r2, #1
 8001244:	715a      	strb	r2, [r3, #5]
		TIM2_UP_DMA_Flag.Fifo_Error_Flag = true;
 8001246:	4b45      	ldr	r3, [pc, #276]	@ (800135c <DMA1_Stream6_IRQHandler+0x12c>)
 8001248:	2201      	movs	r2, #1
 800124a:	715a      	strb	r2, [r3, #5]
		USART8_RX_DMA_Flag.Fifo_Error_Flag = true;
 800124c:	4b44      	ldr	r3, [pc, #272]	@ (8001360 <DMA1_Stream6_IRQHandler+0x130>)
 800124e:	2201      	movs	r2, #1
 8001250:	715a      	strb	r2, [r3, #5]
		USART2_TX_DMA_Flag.Fifo_Error_Flag =  true;
 8001252:	4b44      	ldr	r3, [pc, #272]	@ (8001364 <DMA1_Stream6_IRQHandler+0x134>)
 8001254:	2201      	movs	r2, #1
 8001256:	715a      	strb	r2, [r3, #5]
		I2C1_TX_DMA_Flag.Fifo_Error_Flag = true;
 8001258:	4b43      	ldr	r3, [pc, #268]	@ (8001368 <DMA1_Stream6_IRQHandler+0x138>)
 800125a:	2201      	movs	r2, #1
 800125c:	715a      	strb	r2, [r3, #5]
		DMA1_Stream6_Flag.Fifo_Error_Flag = true;
 800125e:	4b43      	ldr	r3, [pc, #268]	@ (800136c <DMA1_Stream6_IRQHandler+0x13c>)
 8001260:	2201      	movs	r2, #1
 8001262:	715a      	strb	r2, [r3, #5]
		DMA1 -> HIFCR |= DMA_HIFCR_CFEIF6;
 8001264:	4b3b      	ldr	r3, [pc, #236]	@ (8001354 <DMA1_Stream6_IRQHandler+0x124>)
 8001266:	68db      	ldr	r3, [r3, #12]
 8001268:	4a3a      	ldr	r2, [pc, #232]	@ (8001354 <DMA1_Stream6_IRQHandler+0x124>)
 800126a:	f443 3380 	orr.w	r3, r3, #65536	@ 0x10000
 800126e:	60d3      	str	r3, [r2, #12]
	}
	/************************************************************************************************************/
	if(DMA1 -> HISR & DMA_HISR_DMEIF6)
 8001270:	4b38      	ldr	r3, [pc, #224]	@ (8001354 <DMA1_Stream6_IRQHandler+0x124>)
 8001272:	685b      	ldr	r3, [r3, #4]
 8001274:	f403 2380 	and.w	r3, r3, #262144	@ 0x40000
 8001278:	2b00      	cmp	r3, #0
 800127a:	d014      	beq.n	80012a6 <DMA1_Stream6_IRQHandler+0x76>
	{
		TIM2_UP_DMA_Flag.Direct_Mode_Error_Flag = true;
 800127c:	4b37      	ldr	r3, [pc, #220]	@ (800135c <DMA1_Stream6_IRQHandler+0x12c>)
 800127e:	2201      	movs	r2, #1
 8001280:	711a      	strb	r2, [r3, #4]
		USART8_RX_DMA_Flag.Direct_Mode_Error_Flag = true;
 8001282:	4b37      	ldr	r3, [pc, #220]	@ (8001360 <DMA1_Stream6_IRQHandler+0x130>)
 8001284:	2201      	movs	r2, #1
 8001286:	711a      	strb	r2, [r3, #4]
		USART2_TX_DMA_Flag.Direct_Mode_Error_Flag =  true;
 8001288:	4b36      	ldr	r3, [pc, #216]	@ (8001364 <DMA1_Stream6_IRQHandler+0x134>)
 800128a:	2201      	movs	r2, #1
 800128c:	711a      	strb	r2, [r3, #4]
		I2C1_TX_DMA_Flag.Direct_Mode_Error_Flag = true;
 800128e:	4b36      	ldr	r3, [pc, #216]	@ (8001368 <DMA1_Stream6_IRQHandler+0x138>)
 8001290:	2201      	movs	r2, #1
 8001292:	711a      	strb	r2, [r3, #4]
		DMA1_Stream6_Flag.Direct_Mode_Error_Flag = true;
 8001294:	4b35      	ldr	r3, [pc, #212]	@ (800136c <DMA1_Stream6_IRQHandler+0x13c>)
 8001296:	2201      	movs	r2, #1
 8001298:	711a      	strb	r2, [r3, #4]
		DMA1 -> HIFCR |= DMA_HIFCR_CDMEIF6;
 800129a:	4b2e      	ldr	r3, [pc, #184]	@ (8001354 <DMA1_Stream6_IRQHandler+0x124>)
 800129c:	68db      	ldr	r3, [r3, #12]
 800129e:	4a2d      	ldr	r2, [pc, #180]	@ (8001354 <DMA1_Stream6_IRQHandler+0x124>)
 80012a0:	f443 2380 	orr.w	r3, r3, #262144	@ 0x40000
 80012a4:	60d3      	str	r3, [r2, #12]
	}
	/************************************************************************************************************/
	if(DMA1 -> HISR & DMA_HISR_TEIF6)
 80012a6:	4b2b      	ldr	r3, [pc, #172]	@ (8001354 <DMA1_Stream6_IRQHandler+0x124>)
 80012a8:	685b      	ldr	r3, [r3, #4]
 80012aa:	f403 2300 	and.w	r3, r3, #524288	@ 0x80000
 80012ae:	2b00      	cmp	r3, #0
 80012b0:	d014      	beq.n	80012dc <DMA1_Stream6_IRQHandler+0xac>
	{
		TIM2_UP_DMA_Flag.Transfer_Error_Flag = true;
 80012b2:	4b2a      	ldr	r3, [pc, #168]	@ (800135c <DMA1_Stream6_IRQHandler+0x12c>)
 80012b4:	2201      	movs	r2, #1
 80012b6:	70da      	strb	r2, [r3, #3]
		USART8_RX_DMA_Flag.Transfer_Error_Flag = true;
 80012b8:	4b29      	ldr	r3, [pc, #164]	@ (8001360 <DMA1_Stream6_IRQHandler+0x130>)
 80012ba:	2201      	movs	r2, #1
 80012bc:	70da      	strb	r2, [r3, #3]
		USART2_TX_DMA_Flag.Transfer_Error_Flag =  true;
 80012be:	4b29      	ldr	r3, [pc, #164]	@ (8001364 <DMA1_Stream6_IRQHandler+0x134>)
 80012c0:	2201      	movs	r2, #1
 80012c2:	70da      	strb	r2, [r3, #3]
		I2C1_TX_DMA_Flag.Transfer_Error_Flag = true;
 80012c4:	4b28      	ldr	r3, [pc, #160]	@ (8001368 <DMA1_Stream6_IRQHandler+0x138>)
 80012c6:	2201      	movs	r2, #1
 80012c8:	70da      	strb	r2, [r3, #3]
		DMA1_Stream6_Flag.Transfer_Error_Flag = true;
 80012ca:	4b28      	ldr	r3, [pc, #160]	@ (800136c <DMA1_Stream6_IRQHandler+0x13c>)
 80012cc:	2201      	movs	r2, #1
 80012ce:	70da      	strb	r2, [r3, #3]
		DMA1 -> HIFCR |= DMA_HIFCR_CTEIF6;
 80012d0:	4b20      	ldr	r3, [pc, #128]	@ (8001354 <DMA1_Stream6_IRQHandler+0x124>)
 80012d2:	68db      	ldr	r3, [r3, #12]
 80012d4:	4a1f      	ldr	r2, [pc, #124]	@ (8001354 <DMA1_Stream6_IRQHandler+0x124>)
 80012d6:	f443 2300 	orr.w	r3, r3, #524288	@ 0x80000
 80012da:	60d3      	str	r3, [r2, #12]
	}
	/************************************************************************************************************/
	if(DMA1 -> HISR & DMA_HISR_HTIF6)
 80012dc:	4b1d      	ldr	r3, [pc, #116]	@ (8001354 <DMA1_Stream6_IRQHandler+0x124>)
 80012de:	685b      	ldr	r3, [r3, #4]
 80012e0:	f403 1380 	and.w	r3, r3, #1048576	@ 0x100000
 80012e4:	2b00      	cmp	r3, #0
 80012e6:	d014      	beq.n	8001312 <DMA1_Stream6_IRQHandler+0xe2>
	{
		TIM2_UP_DMA_Flag.Half_Transfer_Complete_Flag = true;
 80012e8:	4b1c      	ldr	r3, [pc, #112]	@ (800135c <DMA1_Stream6_IRQHandler+0x12c>)
 80012ea:	2201      	movs	r2, #1
 80012ec:	709a      	strb	r2, [r3, #2]
		USART8_RX_DMA_Flag.Half_Transfer_Complete_Flag = true;
 80012ee:	4b1c      	ldr	r3, [pc, #112]	@ (8001360 <DMA1_Stream6_IRQHandler+0x130>)
 80012f0:	2201      	movs	r2, #1
 80012f2:	709a      	strb	r2, [r3, #2]
		USART2_TX_DMA_Flag.Half_Transfer_Complete_Flag =  true;
 80012f4:	4b1b      	ldr	r3, [pc, #108]	@ (8001364 <DMA1_Stream6_IRQHandler+0x134>)
 80012f6:	2201      	movs	r2, #1
 80012f8:	709a      	strb	r2, [r3, #2]
		I2C1_TX_DMA_Flag.Half_Transfer_Complete_Flag = true;
 80012fa:	4b1b      	ldr	r3, [pc, #108]	@ (8001368 <DMA1_Stream6_IRQHandler+0x138>)
 80012fc:	2201      	movs	r2, #1
 80012fe:	709a      	strb	r2, [r3, #2]
		DMA1_Stream6_Flag.Half_Transfer_Complete_Flag = true;
 8001300:	4b1a      	ldr	r3, [pc, #104]	@ (800136c <DMA1_Stream6_IRQHandler+0x13c>)
 8001302:	2201      	movs	r2, #1
 8001304:	709a      	strb	r2, [r3, #2]
		DMA1 -> HIFCR |= DMA_HIFCR_CHTIF6;
 8001306:	4b13      	ldr	r3, [pc, #76]	@ (8001354 <DMA1_Stream6_IRQHandler+0x124>)
 8001308:	68db      	ldr	r3, [r3, #12]
 800130a:	4a12      	ldr	r2, [pc, #72]	@ (8001354 <DMA1_Stream6_IRQHandler+0x124>)
 800130c:	f443 1380 	orr.w	r3, r3, #1048576	@ 0x100000
 8001310:	60d3      	str	r3, [r2, #12]
	}
	/************************************************************************************************************/
	if(DMA1 -> HISR & DMA_HISR_TCIF6)
 8001312:	4b10      	ldr	r3, [pc, #64]	@ (8001354 <DMA1_Stream6_IRQHandler+0x124>)
 8001314:	685b      	ldr	r3, [r3, #4]
 8001316:	f403 1300 	and.w	r3, r3, #2097152	@ 0x200000
 800131a:	2b00      	cmp	r3, #0
 800131c:	d014      	beq.n	8001348 <DMA1_Stream6_IRQHandler+0x118>
	{
		TIM2_UP_DMA_Flag.Transfer_Complete_Flag = true;
 800131e:	4b0f      	ldr	r3, [pc, #60]	@ (800135c <DMA1_Stream6_IRQHandler+0x12c>)
 8001320:	2201      	movs	r2, #1
 8001322:	705a      	strb	r2, [r3, #1]
		USART8_RX_DMA_Flag.Transfer_Complete_Flag = true;
 8001324:	4b0e      	ldr	r3, [pc, #56]	@ (8001360 <DMA1_Stream6_IRQHandler+0x130>)
 8001326:	2201      	movs	r2, #1
 8001328:	705a      	strb	r2, [r3, #1]
		USART2_TX_DMA_Flag.Transfer_Complete_Flag =  true;
 800132a:	4b0e      	ldr	r3, [pc, #56]	@ (8001364 <DMA1_Stream6_IRQHandler+0x134>)
 800132c:	2201      	movs	r2, #1
 800132e:	705a      	strb	r2, [r3, #1]
		I2C1_TX_DMA_Flag.Transfer_Complete_Flag = true;
 8001330:	4b0d      	ldr	r3, [pc, #52]	@ (8001368 <DMA1_Stream6_IRQHandler+0x138>)
 8001332:	2201      	movs	r2, #1
 8001334:	705a      	strb	r2, [r3, #1]
		DMA1_Stream6_Flag.Transfer_Complete_Flag = true;
 8001336:	4b0d      	ldr	r3, [pc, #52]	@ (800136c <DMA1_Stream6_IRQHandler+0x13c>)
 8001338:	2201      	movs	r2, #1
 800133a:	705a      	strb	r2, [r3, #1]
		DMA1 -> HIFCR |= DMA_HIFCR_CTCIF6;
 800133c:	4b05      	ldr	r3, [pc, #20]	@ (8001354 <DMA1_Stream6_IRQHandler+0x124>)
 800133e:	68db      	ldr	r3, [r3, #12]
 8001340:	4a04      	ldr	r2, [pc, #16]	@ (8001354 <DMA1_Stream6_IRQHandler+0x124>)
 8001342:	f443 1300 	orr.w	r3, r3, #2097152	@ 0x200000
 8001346:	60d3      	str	r3, [r2, #12]
	}
}
 8001348:	bf00      	nop
 800134a:	46bd      	mov	sp, r7
 800134c:	f85d 7b04 	ldr.w	r7, [sp], #4
 8001350:	4770      	bx	lr
 8001352:	bf00      	nop
 8001354:	40026000 	.word	0x40026000
 8001358:	20000198 	.word	0x20000198
 800135c:	20000160 	.word	0x20000160
 8001360:	200000e8 	.word	0x200000e8
 8001364:	200000a0 	.word	0x200000a0
 8001368:	20000040 	.word	0x20000040
 800136c:	20000240 	.word	0x20000240

08001370 <DMA1_Stream7_IRQHandler>:
 * transfer error, half transfer complete, and transfer complete. For each
 * event, it sets the corresponding flag in the `DMA1_Stream7_Flag` structure
 * and clears the respective interrupt flag in the DMA interrupt flag clear register.
 */
void DMA1_Stream7_IRQHandler(void)
{
 8001370:	b480      	push	{r7}
 8001372:	af00      	add	r7, sp, #0
	if(DMA1 -> HISR & DMA_HISR_FEIF7)
 8001374:	4b54      	ldr	r3, [pc, #336]	@ (80014c8 <DMA1_Stream7_IRQHandler+0x158>)
 8001376:	685b      	ldr	r3, [r3, #4]
 8001378:	f403 0380 	and.w	r3, r3, #4194304	@ 0x400000
 800137c:	2b00      	cmp	r3, #0
 800137e:	d01a      	beq.n	80013b6 <DMA1_Stream7_IRQHandler+0x46>
	{
		I2S3_TX_DMA_Flag.Fifo_Error_Flag = true;
 8001380:	4b52      	ldr	r3, [pc, #328]	@ (80014cc <DMA1_Stream7_IRQHandler+0x15c>)
 8001382:	2201      	movs	r2, #1
 8001384:	715a      	strb	r2, [r3, #5]
		I2C2_TX_DMA_Flag.Fifo_Error_Flag = true;
 8001386:	4b52      	ldr	r3, [pc, #328]	@ (80014d0 <DMA1_Stream7_IRQHandler+0x160>)
 8001388:	2201      	movs	r2, #1
 800138a:	715a      	strb	r2, [r3, #5]
		USART5_TX_DMA_Flag.Fifo_Error_Flag = true;
 800138c:	4b51      	ldr	r3, [pc, #324]	@ (80014d4 <DMA1_Stream7_IRQHandler+0x164>)
 800138e:	2201      	movs	r2, #1
 8001390:	715a      	strb	r2, [r3, #5]
		TIM4_CH3_DMA_Flag.Fifo_Error_Flag = true;
 8001392:	4b51      	ldr	r3, [pc, #324]	@ (80014d8 <DMA1_Stream7_IRQHandler+0x168>)
 8001394:	2201      	movs	r2, #1
 8001396:	715a      	strb	r2, [r3, #5]
		TIM2_CH2_DMA_Flag.Fifo_Error_Flag = true;
 8001398:	4b50      	ldr	r3, [pc, #320]	@ (80014dc <DMA1_Stream7_IRQHandler+0x16c>)
 800139a:	2201      	movs	r2, #1
 800139c:	715a      	strb	r2, [r3, #5]
		TIM2_CH4_DMA_Flag.Fifo_Error_Flag = true;
 800139e:	4b50      	ldr	r3, [pc, #320]	@ (80014e0 <DMA1_Stream7_IRQHandler+0x170>)
 80013a0:	2201      	movs	r2, #1
 80013a2:	715a      	strb	r2, [r3, #5]

		DMA1_Stream7_Flag.Fifo_Error_Flag = true;
 80013a4:	4b4f      	ldr	r3, [pc, #316]	@ (80014e4 <DMA1_Stream7_IRQHandler+0x174>)
 80013a6:	2201      	movs	r2, #1
 80013a8:	715a      	strb	r2, [r3, #5]
		DMA1 -> HIFCR |= DMA_HIFCR_CFEIF7;
 80013aa:	4b47      	ldr	r3, [pc, #284]	@ (80014c8 <DMA1_Stream7_IRQHandler+0x158>)
 80013ac:	68db      	ldr	r3, [r3, #12]
 80013ae:	4a46      	ldr	r2, [pc, #280]	@ (80014c8 <DMA1_Stream7_IRQHandler+0x158>)
 80013b0:	f443 0380 	orr.w	r3, r3, #4194304	@ 0x400000
 80013b4:	60d3      	str	r3, [r2, #12]
	}
	/************************************************************************************************************/
	if(DMA1 -> HISR & DMA_HISR_DMEIF7)
 80013b6:	4b44      	ldr	r3, [pc, #272]	@ (80014c8 <DMA1_Stream7_IRQHandler+0x158>)
 80013b8:	685b      	ldr	r3, [r3, #4]
 80013ba:	f003 7380 	and.w	r3, r3, #16777216	@ 0x1000000
 80013be:	2b00      	cmp	r3, #0
 80013c0:	d01a      	beq.n	80013f8 <DMA1_Stream7_IRQHandler+0x88>
	{
		I2S3_TX_DMA_Flag.Direct_Mode_Error_Flag = true;
 80013c2:	4b42      	ldr	r3, [pc, #264]	@ (80014cc <DMA1_Stream7_IRQHandler+0x15c>)
 80013c4:	2201      	movs	r2, #1
 80013c6:	711a      	strb	r2, [r3, #4]
		I2C2_TX_DMA_Flag.Direct_Mode_Error_Flag = true;
 80013c8:	4b41      	ldr	r3, [pc, #260]	@ (80014d0 <DMA1_Stream7_IRQHandler+0x160>)
 80013ca:	2201      	movs	r2, #1
 80013cc:	711a      	strb	r2, [r3, #4]
		USART5_TX_DMA_Flag.Direct_Mode_Error_Flag = true;
 80013ce:	4b41      	ldr	r3, [pc, #260]	@ (80014d4 <DMA1_Stream7_IRQHandler+0x164>)
 80013d0:	2201      	movs	r2, #1
 80013d2:	711a      	strb	r2, [r3, #4]
		TIM4_CH3_DMA_Flag.Direct_Mode_Error_Flag = true;
 80013d4:	4b40      	ldr	r3, [pc, #256]	@ (80014d8 <DMA1_Stream7_IRQHandler+0x168>)
 80013d6:	2201      	movs	r2, #1
 80013d8:	711a      	strb	r2, [r3, #4]
		TIM2_CH2_DMA_Flag.Direct_Mode_Error_Flag = true;
 80013da:	4b40      	ldr	r3, [pc, #256]	@ (80014dc <DMA1_Stream7_IRQHandler+0x16c>)
 80013dc:	2201      	movs	r2, #1
 80013de:	711a      	strb	r2, [r3, #4]
		TIM2_CH4_DMA_Flag.Direct_Mode_Error_Flag = true;
 80013e0:	4b3f      	ldr	r3, [pc, #252]	@ (80014e0 <DMA1_Stream7_IRQHandler+0x170>)
 80013e2:	2201      	movs	r2, #1
 80013e4:	711a      	strb	r2, [r3, #4]
		DMA1_Stream7_Flag.Direct_Mode_Error_Flag = true;
 80013e6:	4b3f      	ldr	r3, [pc, #252]	@ (80014e4 <DMA1_Stream7_IRQHandler+0x174>)
 80013e8:	2201      	movs	r2, #1
 80013ea:	711a      	strb	r2, [r3, #4]
		DMA1 -> HIFCR |= DMA_HIFCR_CDMEIF7;
 80013ec:	4b36      	ldr	r3, [pc, #216]	@ (80014c8 <DMA1_Stream7_IRQHandler+0x158>)
 80013ee:	68db      	ldr	r3, [r3, #12]
 80013f0:	4a35      	ldr	r2, [pc, #212]	@ (80014c8 <DMA1_Stream7_IRQHandler+0x158>)
 80013f2:	f043 7380 	orr.w	r3, r3, #16777216	@ 0x1000000
 80013f6:	60d3      	str	r3, [r2, #12]
	}
	/************************************************************************************************************/
	if(DMA1 -> HISR & DMA_HISR_TEIF7)
 80013f8:	4b33      	ldr	r3, [pc, #204]	@ (80014c8 <DMA1_Stream7_IRQHandler+0x158>)
 80013fa:	685b      	ldr	r3, [r3, #4]
 80013fc:	f003 7300 	and.w	r3, r3, #33554432	@ 0x2000000
 8001400:	2b00      	cmp	r3, #0
 8001402:	d01a      	beq.n	800143a <DMA1_Stream7_IRQHandler+0xca>
	{
		I2S3_TX_DMA_Flag.Transfer_Error_Flag = true;
 8001404:	4b31      	ldr	r3, [pc, #196]	@ (80014cc <DMA1_Stream7_IRQHandler+0x15c>)
 8001406:	2201      	movs	r2, #1
 8001408:	70da      	strb	r2, [r3, #3]
		I2C2_TX_DMA_Flag.Transfer_Error_Flag = true;
 800140a:	4b31      	ldr	r3, [pc, #196]	@ (80014d0 <DMA1_Stream7_IRQHandler+0x160>)
 800140c:	2201      	movs	r2, #1
 800140e:	70da      	strb	r2, [r3, #3]
		USART5_TX_DMA_Flag.Transfer_Error_Flag = true;
 8001410:	4b30      	ldr	r3, [pc, #192]	@ (80014d4 <DMA1_Stream7_IRQHandler+0x164>)
 8001412:	2201      	movs	r2, #1
 8001414:	70da      	strb	r2, [r3, #3]
		TIM4_CH3_DMA_Flag.Transfer_Error_Flag = true;
 8001416:	4b30      	ldr	r3, [pc, #192]	@ (80014d8 <DMA1_Stream7_IRQHandler+0x168>)
 8001418:	2201      	movs	r2, #1
 800141a:	70da      	strb	r2, [r3, #3]
		TIM2_CH2_DMA_Flag.Transfer_Error_Flag = true;
 800141c:	4b2f      	ldr	r3, [pc, #188]	@ (80014dc <DMA1_Stream7_IRQHandler+0x16c>)
 800141e:	2201      	movs	r2, #1
 8001420:	70da      	strb	r2, [r3, #3]
		TIM2_CH4_DMA_Flag.Transfer_Error_Flag = true;
 8001422:	4b2f      	ldr	r3, [pc, #188]	@ (80014e0 <DMA1_Stream7_IRQHandler+0x170>)
 8001424:	2201      	movs	r2, #1
 8001426:	70da      	strb	r2, [r3, #3]
		DMA1_Stream7_Flag.Transfer_Error_Flag = true;
 8001428:	4b2e      	ldr	r3, [pc, #184]	@ (80014e4 <DMA1_Stream7_IRQHandler+0x174>)
 800142a:	2201      	movs	r2, #1
 800142c:	70da      	strb	r2, [r3, #3]
		DMA1 -> HIFCR |= DMA_HIFCR_CTEIF7;
 800142e:	4b26      	ldr	r3, [pc, #152]	@ (80014c8 <DMA1_Stream7_IRQHandler+0x158>)
 8001430:	68db      	ldr	r3, [r3, #12]
 8001432:	4a25      	ldr	r2, [pc, #148]	@ (80014c8 <DMA1_Stream7_IRQHandler+0x158>)
 8001434:	f043 7300 	orr.w	r3, r3, #33554432	@ 0x2000000
 8001438:	60d3      	str	r3, [r2, #12]
	}
	/************************************************************************************************************/
	if(DMA1 -> HISR & DMA_HISR_HTIF7)
 800143a:	4b23      	ldr	r3, [pc, #140]	@ (80014c8 <DMA1_Stream7_IRQHandler+0x158>)
 800143c:	685b      	ldr	r3, [r3, #4]
 800143e:	f003 6380 	and.w	r3, r3, #67108864	@ 0x4000000
 8001442:	2b00      	cmp	r3, #0
 8001444:	d01a      	beq.n	800147c <DMA1_Stream7_IRQHandler+0x10c>
	{
		I2S3_TX_DMA_Flag.Half_Transfer_Complete_Flag = true;
 8001446:	4b21      	ldr	r3, [pc, #132]	@ (80014cc <DMA1_Stream7_IRQHandler+0x15c>)
 8001448:	2201      	movs	r2, #1
 800144a:	709a      	strb	r2, [r3, #2]
		I2C2_TX_DMA_Flag.Half_Transfer_Complete_Flag = true;
 800144c:	4b20      	ldr	r3, [pc, #128]	@ (80014d0 <DMA1_Stream7_IRQHandler+0x160>)
 800144e:	2201      	movs	r2, #1
 8001450:	709a      	strb	r2, [r3, #2]
		USART5_TX_DMA_Flag.Half_Transfer_Complete_Flag = true;
 8001452:	4b20      	ldr	r3, [pc, #128]	@ (80014d4 <DMA1_Stream7_IRQHandler+0x164>)
 8001454:	2201      	movs	r2, #1
 8001456:	709a      	strb	r2, [r3, #2]
		TIM4_CH3_DMA_Flag.Half_Transfer_Complete_Flag = true;
 8001458:	4b1f      	ldr	r3, [pc, #124]	@ (80014d8 <DMA1_Stream7_IRQHandler+0x168>)
 800145a:	2201      	movs	r2, #1
 800145c:	709a      	strb	r2, [r3, #2]
		TIM2_CH2_DMA_Flag.Half_Transfer_Complete_Flag = true;
 800145e:	4b1f      	ldr	r3, [pc, #124]	@ (80014dc <DMA1_Stream7_IRQHandler+0x16c>)
 8001460:	2201      	movs	r2, #1
 8001462:	709a      	strb	r2, [r3, #2]
		TIM2_CH4_DMA_Flag.Half_Transfer_Complete_Flag = true;
 8001464:	4b1e      	ldr	r3, [pc, #120]	@ (80014e0 <DMA1_Stream7_IRQHandler+0x170>)
 8001466:	2201      	movs	r2, #1
 8001468:	709a      	strb	r2, [r3, #2]
		DMA1_Stream7_Flag.Half_Transfer_Complete_Flag = true;
 800146a:	4b1e      	ldr	r3, [pc, #120]	@ (80014e4 <DMA1_Stream7_IRQHandler+0x174>)
 800146c:	2201      	movs	r2, #1
 800146e:	709a      	strb	r2, [r3, #2]
		DMA1 -> HIFCR |= DMA_HIFCR_CHTIF7;
 8001470:	4b15      	ldr	r3, [pc, #84]	@ (80014c8 <DMA1_Stream7_IRQHandler+0x158>)
 8001472:	68db      	ldr	r3, [r3, #12]
 8001474:	4a14      	ldr	r2, [pc, #80]	@ (80014c8 <DMA1_Stream7_IRQHandler+0x158>)
 8001476:	f043 6380 	orr.w	r3, r3, #67108864	@ 0x4000000
 800147a:	60d3      	str	r3, [r2, #12]
	}
	/************************************************************************************************************/
	if(DMA1 -> HISR & DMA_HISR_TCIF7)
 800147c:	4b12      	ldr	r3, [pc, #72]	@ (80014c8 <DMA1_Stream7_IRQHandler+0x158>)
 800147e:	685b      	ldr	r3, [r3, #4]
 8001480:	f003 6300 	and.w	r3, r3, #134217728	@ 0x8000000
 8001484:	2b00      	cmp	r3, #0
 8001486:	d01a      	beq.n	80014be <DMA1_Stream7_IRQHandler+0x14e>
	{
		I2S3_TX_DMA_Flag.Transfer_Complete_Flag = true;
 8001488:	4b10      	ldr	r3, [pc, #64]	@ (80014cc <DMA1_Stream7_IRQHandler+0x15c>)
 800148a:	2201      	movs	r2, #1
 800148c:	705a      	strb	r2, [r3, #1]
		I2C2_TX_DMA_Flag.Transfer_Complete_Flag = true;
 800148e:	4b10      	ldr	r3, [pc, #64]	@ (80014d0 <DMA1_Stream7_IRQHandler+0x160>)
 8001490:	2201      	movs	r2, #1
 8001492:	705a      	strb	r2, [r3, #1]
		USART5_TX_DMA_Flag.Transfer_Complete_Flag = true;
 8001494:	4b0f      	ldr	r3, [pc, #60]	@ (80014d4 <DMA1_Stream7_IRQHandler+0x164>)
 8001496:	2201      	movs	r2, #1
 8001498:	705a      	strb	r2, [r3, #1]
		TIM4_CH3_DMA_Flag.Transfer_Complete_Flag = true;
 800149a:	4b0f      	ldr	r3, [pc, #60]	@ (80014d8 <DMA1_Stream7_IRQHandler+0x168>)
 800149c:	2201      	movs	r2, #1
 800149e:	705a      	strb	r2, [r3, #1]
		TIM2_CH2_DMA_Flag.Transfer_Complete_Flag = true;
 80014a0:	4b0e      	ldr	r3, [pc, #56]	@ (80014dc <DMA1_Stream7_IRQHandler+0x16c>)
 80014a2:	2201      	movs	r2, #1
 80014a4:	705a      	strb	r2, [r3, #1]
		TIM2_CH4_DMA_Flag.Transfer_Complete_Flag = true;
 80014a6:	4b0e      	ldr	r3, [pc, #56]	@ (80014e0 <DMA1_Stream7_IRQHandler+0x170>)
 80014a8:	2201      	movs	r2, #1
 80014aa:	705a      	strb	r2, [r3, #1]
		DMA1_Stream7_Flag.Transfer_Complete_Flag = true;
 80014ac:	4b0d      	ldr	r3, [pc, #52]	@ (80014e4 <DMA1_Stream7_IRQHandler+0x174>)
 80014ae:	2201      	movs	r2, #1
 80014b0:	705a      	strb	r2, [r3, #1]
		DMA1 -> HIFCR |= DMA_HIFCR_CTCIF7;
 80014b2:	4b05      	ldr	r3, [pc, #20]	@ (80014c8 <DMA1_Stream7_IRQHandler+0x158>)
 80014b4:	68db      	ldr	r3, [r3, #12]
 80014b6:	4a04      	ldr	r2, [pc, #16]	@ (80014c8 <DMA1_Stream7_IRQHandler+0x158>)
 80014b8:	f043 6300 	orr.w	r3, r3, #134217728	@ 0x8000000
 80014bc:	60d3      	str	r3, [r2, #12]
	}
}
 80014be:	bf00      	nop
 80014c0:	46bd      	mov	sp, r7
 80014c2:	f85d 7b04 	ldr.w	r7, [sp], #4
 80014c6:	4770      	bx	lr
 80014c8:	40026000 	.word	0x40026000
 80014cc:	20000030 	.word	0x20000030
 80014d0:	20000048 	.word	0x20000048
 80014d4:	200000c8 	.word	0x200000c8
 80014d8:	200001b8 	.word	0x200001b8
 80014dc:	20000170 	.word	0x20000170
 80014e0:	20000180 	.word	0x20000180
 80014e4:	20000248 	.word	0x20000248

080014e8 <DMA2_Stream0_IRQHandler>:
 * transfer error, half transfer complete, and transfer complete. For each
 * event, it sets the corresponding flag in the `DMA2_Stream0_Flag` structure
 * and clears the respective interrupt flag in the DMA interrupt flag clear register.
 */
void DMA2_Stream0_IRQHandler(void)
{
 80014e8:	b480      	push	{r7}
 80014ea:	af00      	add	r7, sp, #0
	if(DMA2 -> LISR & DMA_LISR_FEIF0)
 80014ec:	4b45      	ldr	r3, [pc, #276]	@ (8001604 <DMA2_Stream0_IRQHandler+0x11c>)
 80014ee:	681b      	ldr	r3, [r3, #0]
 80014f0:	f003 0301 	and.w	r3, r3, #1
 80014f4:	2b00      	cmp	r3, #0
 80014f6:	d014      	beq.n	8001522 <DMA2_Stream0_IRQHandler+0x3a>
	{
		SPI1_RX_DMA_Flag.Fifo_Error_Flag = true;
 80014f8:	4b43      	ldr	r3, [pc, #268]	@ (8001608 <DMA2_Stream0_IRQHandler+0x120>)
 80014fa:	2201      	movs	r2, #1
 80014fc:	715a      	strb	r2, [r3, #5]
		ADC1_DMA_Flag.Fifo_Error_Flag = true;
 80014fe:	4b43      	ldr	r3, [pc, #268]	@ (800160c <DMA2_Stream0_IRQHandler+0x124>)
 8001500:	2201      	movs	r2, #1
 8001502:	715a      	strb	r2, [r3, #5]
		TIM1_TRIG_DMA_Flag.Fifo_Error_Flag = true;
 8001504:	4b42      	ldr	r3, [pc, #264]	@ (8001610 <DMA2_Stream0_IRQHandler+0x128>)
 8001506:	2201      	movs	r2, #1
 8001508:	715a      	strb	r2, [r3, #5]
		TIM1_COM_DMA_Flag.Fifo_Error_Flag = true;
 800150a:	4b42      	ldr	r3, [pc, #264]	@ (8001614 <DMA2_Stream0_IRQHandler+0x12c>)
 800150c:	2201      	movs	r2, #1
 800150e:	715a      	strb	r2, [r3, #5]
		DMA2_Stream0_Flag.Fifo_Error_Flag = true;
 8001510:	4b41      	ldr	r3, [pc, #260]	@ (8001618 <DMA2_Stream0_IRQHandler+0x130>)
 8001512:	2201      	movs	r2, #1
 8001514:	715a      	strb	r2, [r3, #5]
		DMA2 -> LIFCR |= DMA_LIFCR_CFEIF0;
 8001516:	4b3b      	ldr	r3, [pc, #236]	@ (8001604 <DMA2_Stream0_IRQHandler+0x11c>)
 8001518:	689b      	ldr	r3, [r3, #8]
 800151a:	4a3a      	ldr	r2, [pc, #232]	@ (8001604 <DMA2_Stream0_IRQHandler+0x11c>)
 800151c:	f043 0301 	orr.w	r3, r3, #1
 8001520:	6093      	str	r3, [r2, #8]
	}
	/************************************************************************************************************/
	if(DMA2 -> LISR & DMA_LISR_DMEIF0)
 8001522:	4b38      	ldr	r3, [pc, #224]	@ (8001604 <DMA2_Stream0_IRQHandler+0x11c>)
 8001524:	681b      	ldr	r3, [r3, #0]
 8001526:	f003 0304 	and.w	r3, r3, #4
 800152a:	2b00      	cmp	r3, #0
 800152c:	d014      	beq.n	8001558 <DMA2_Stream0_IRQHandler+0x70>
	{
		SPI1_RX_DMA_Flag.Direct_Mode_Error_Flag = true;
 800152e:	4b36      	ldr	r3, [pc, #216]	@ (8001608 <DMA2_Stream0_IRQHandler+0x120>)
 8001530:	2201      	movs	r2, #1
 8001532:	711a      	strb	r2, [r3, #4]
		ADC1_DMA_Flag.Direct_Mode_Error_Flag = true;
 8001534:	4b35      	ldr	r3, [pc, #212]	@ (800160c <DMA2_Stream0_IRQHandler+0x124>)
 8001536:	2201      	movs	r2, #1
 8001538:	711a      	strb	r2, [r3, #4]
		TIM1_TRIG_DMA_Flag.Direct_Mode_Error_Flag = true;
 800153a:	4b35      	ldr	r3, [pc, #212]	@ (8001610 <DMA2_Stream0_IRQHandler+0x128>)
 800153c:	2201      	movs	r2, #1
 800153e:	711a      	strb	r2, [r3, #4]
		TIM1_COM_DMA_Flag.Direct_Mode_Error_Flag = true;
 8001540:	4b34      	ldr	r3, [pc, #208]	@ (8001614 <DMA2_Stream0_IRQHandler+0x12c>)
 8001542:	2201      	movs	r2, #1
 8001544:	711a      	strb	r2, [r3, #4]
		DMA2_Stream0_Flag.Direct_Mode_Error_Flag = true;
 8001546:	4b34      	ldr	r3, [pc, #208]	@ (8001618 <DMA2_Stream0_IRQHandler+0x130>)
 8001548:	2201      	movs	r2, #1
 800154a:	711a      	strb	r2, [r3, #4]
		DMA2 -> LIFCR |= DMA_LIFCR_CDMEIF0;
 800154c:	4b2d      	ldr	r3, [pc, #180]	@ (8001604 <DMA2_Stream0_IRQHandler+0x11c>)
 800154e:	689b      	ldr	r3, [r3, #8]
 8001550:	4a2c      	ldr	r2, [pc, #176]	@ (8001604 <DMA2_Stream0_IRQHandler+0x11c>)
 8001552:	f043 0304 	orr.w	r3, r3, #4
 8001556:	6093      	str	r3, [r2, #8]
	}
	/************************************************************************************************************/
	if(DMA2 -> LISR & DMA_LISR_TEIF0)
 8001558:	4b2a      	ldr	r3, [pc, #168]	@ (8001604 <DMA2_Stream0_IRQHandler+0x11c>)
 800155a:	681b      	ldr	r3, [r3, #0]
 800155c:	f003 0308 	and.w	r3, r3, #8
 8001560:	2b00      	cmp	r3, #0
 8001562:	d014      	beq.n	800158e <DMA2_Stream0_IRQHandler+0xa6>
	{
		SPI1_RX_DMA_Flag.Transfer_Error_Flag = true;
 8001564:	4b28      	ldr	r3, [pc, #160]	@ (8001608 <DMA2_Stream0_IRQHandler+0x120>)
 8001566:	2201      	movs	r2, #1
 8001568:	70da      	strb	r2, [r3, #3]
		ADC1_DMA_Flag.Transfer_Error_Flag = true;
 800156a:	4b28      	ldr	r3, [pc, #160]	@ (800160c <DMA2_Stream0_IRQHandler+0x124>)
 800156c:	2201      	movs	r2, #1
 800156e:	70da      	strb	r2, [r3, #3]
		TIM1_TRIG_DMA_Flag.Transfer_Error_Flag = true;
 8001570:	4b27      	ldr	r3, [pc, #156]	@ (8001610 <DMA2_Stream0_IRQHandler+0x128>)
 8001572:	2201      	movs	r2, #1
 8001574:	70da      	strb	r2, [r3, #3]
		TIM1_COM_DMA_Flag.Transfer_Error_Flag = true;
 8001576:	4b27      	ldr	r3, [pc, #156]	@ (8001614 <DMA2_Stream0_IRQHandler+0x12c>)
 8001578:	2201      	movs	r2, #1
 800157a:	70da      	strb	r2, [r3, #3]
		DMA2_Stream0_Flag.Transfer_Error_Flag = true;
 800157c:	4b26      	ldr	r3, [pc, #152]	@ (8001618 <DMA2_Stream0_IRQHandler+0x130>)
 800157e:	2201      	movs	r2, #1
 8001580:	70da      	strb	r2, [r3, #3]
		DMA2 -> LIFCR |= DMA_LIFCR_CTEIF0;
 8001582:	4b20      	ldr	r3, [pc, #128]	@ (8001604 <DMA2_Stream0_IRQHandler+0x11c>)
 8001584:	689b      	ldr	r3, [r3, #8]
 8001586:	4a1f      	ldr	r2, [pc, #124]	@ (8001604 <DMA2_Stream0_IRQHandler+0x11c>)
 8001588:	f043 0308 	orr.w	r3, r3, #8
 800158c:	6093      	str	r3, [r2, #8]
	}
	/************************************************************************************************************/
	if(DMA2 -> LISR & DMA_LISR_HTIF0)
 800158e:	4b1d      	ldr	r3, [pc, #116]	@ (8001604 <DMA2_Stream0_IRQHandler+0x11c>)
 8001590:	681b      	ldr	r3, [r3, #0]
 8001592:	f003 0310 	and.w	r3, r3, #16
 8001596:	2b00      	cmp	r3, #0
 8001598:	d014      	beq.n	80015c4 <DMA2_Stream0_IRQHandler+0xdc>
	{
		SPI1_RX_DMA_Flag.Half_Transfer_Complete_Flag = true;
 800159a:	4b1b      	ldr	r3, [pc, #108]	@ (8001608 <DMA2_Stream0_IRQHandler+0x120>)
 800159c:	2201      	movs	r2, #1
 800159e:	709a      	strb	r2, [r3, #2]
		ADC1_DMA_Flag.Half_Transfer_Complete_Flag = true;
 80015a0:	4b1a      	ldr	r3, [pc, #104]	@ (800160c <DMA2_Stream0_IRQHandler+0x124>)
 80015a2:	2201      	movs	r2, #1
 80015a4:	709a      	strb	r2, [r3, #2]
		TIM1_TRIG_DMA_Flag.Half_Transfer_Complete_Flag = true;
 80015a6:	4b1a      	ldr	r3, [pc, #104]	@ (8001610 <DMA2_Stream0_IRQHandler+0x128>)
 80015a8:	2201      	movs	r2, #1
 80015aa:	709a      	strb	r2, [r3, #2]
		TIM1_COM_DMA_Flag.Half_Transfer_Complete_Flag = true;
 80015ac:	4b19      	ldr	r3, [pc, #100]	@ (8001614 <DMA2_Stream0_IRQHandler+0x12c>)
 80015ae:	2201      	movs	r2, #1
 80015b0:	709a      	strb	r2, [r3, #2]
		DMA2_Stream0_Flag.Half_Transfer_Complete_Flag = true;
 80015b2:	4b19      	ldr	r3, [pc, #100]	@ (8001618 <DMA2_Stream0_IRQHandler+0x130>)
 80015b4:	2201      	movs	r2, #1
 80015b6:	709a      	strb	r2, [r3, #2]
		DMA2 -> LIFCR |= DMA_LIFCR_CHTIF0;
 80015b8:	4b12      	ldr	r3, [pc, #72]	@ (8001604 <DMA2_Stream0_IRQHandler+0x11c>)
 80015ba:	689b      	ldr	r3, [r3, #8]
 80015bc:	4a11      	ldr	r2, [pc, #68]	@ (8001604 <DMA2_Stream0_IRQHandler+0x11c>)
 80015be:	f043 0310 	orr.w	r3, r3, #16
 80015c2:	6093      	str	r3, [r2, #8]
	}
	/************************************************************************************************************/
	if(DMA2 -> LISR & DMA_LISR_TCIF0)
 80015c4:	4b0f      	ldr	r3, [pc, #60]	@ (8001604 <DMA2_Stream0_IRQHandler+0x11c>)
 80015c6:	681b      	ldr	r3, [r3, #0]
 80015c8:	f003 0320 	and.w	r3, r3, #32
 80015cc:	2b00      	cmp	r3, #0
 80015ce:	d014      	beq.n	80015fa <DMA2_Stream0_IRQHandler+0x112>
	{
		SPI1_RX_DMA_Flag.Transfer_Complete_Flag = true;
 80015d0:	4b0d      	ldr	r3, [pc, #52]	@ (8001608 <DMA2_Stream0_IRQHandler+0x120>)
 80015d2:	2201      	movs	r2, #1
 80015d4:	705a      	strb	r2, [r3, #1]
		ADC1_DMA_Flag.Transfer_Complete_Flag = true;
 80015d6:	4b0d      	ldr	r3, [pc, #52]	@ (800160c <DMA2_Stream0_IRQHandler+0x124>)
 80015d8:	2201      	movs	r2, #1
 80015da:	705a      	strb	r2, [r3, #1]
		TIM1_TRIG_DMA_Flag.Transfer_Complete_Flag = true;
 80015dc:	4b0c      	ldr	r3, [pc, #48]	@ (8001610 <DMA2_Stream0_IRQHandler+0x128>)
 80015de:	2201      	movs	r2, #1
 80015e0:	705a      	strb	r2, [r3, #1]
		TIM1_COM_DMA_Flag.Transfer_Complete_Flag = true;
 80015e2:	4b0c      	ldr	r3, [pc, #48]	@ (8001614 <DMA2_Stream0_IRQHandler+0x12c>)
 80015e4:	2201      	movs	r2, #1
 80015e6:	705a      	strb	r2, [r3, #1]
		DMA2_Stream0_Flag.Transfer_Complete_Flag = true;
 80015e8:	4b0b      	ldr	r3, [pc, #44]	@ (8001618 <DMA2_Stream0_IRQHandler+0x130>)
 80015ea:	2201      	movs	r2, #1
 80015ec:	705a      	strb	r2, [r3, #1]
		DMA2 -> LIFCR |= DMA_LIFCR_CTCIF0;
 80015ee:	4b05      	ldr	r3, [pc, #20]	@ (8001604 <DMA2_Stream0_IRQHandler+0x11c>)
 80015f0:	689b      	ldr	r3, [r3, #8]
 80015f2:	4a04      	ldr	r2, [pc, #16]	@ (8001604 <DMA2_Stream0_IRQHandler+0x11c>)
 80015f4:	f043 0320 	orr.w	r3, r3, #32
 80015f8:	6093      	str	r3, [r2, #8]
	}
}
 80015fa:	bf00      	nop
 80015fc:	46bd      	mov	sp, r7
 80015fe:	f85d 7b04 	ldr.w	r7, [sp], #4
 8001602:	4770      	bx	lr
 8001604:	40026400 	.word	0x40026400
 8001608:	20000058 	.word	0x20000058
 800160c:	200001f8 	.word	0x200001f8
 8001610:	20000118 	.word	0x20000118
 8001614:	20000120 	.word	0x20000120
 8001618:	20000250 	.word	0x20000250

0800161c <DMA2_Stream1_IRQHandler>:
 * transfer error, half transfer complete, and transfer complete. For each
 * event, it sets the corresponding flag in the `DMA2_Stream1_Flag` structure
 * and clears the respective interrupt flag in the DMA interrupt flag clear register.
 */
void DMA2_Stream1_IRQHandler(void)
{
 800161c:	b480      	push	{r7}
 800161e:	af00      	add	r7, sp, #0
	if(DMA2 -> LISR & DMA_LISR_FEIF1)
 8001620:	4b5c      	ldr	r3, [pc, #368]	@ (8001794 <DMA2_Stream1_IRQHandler+0x178>)
 8001622:	681b      	ldr	r3, [r3, #0]
 8001624:	f003 0340 	and.w	r3, r3, #64	@ 0x40
 8001628:	2b00      	cmp	r3, #0
 800162a:	d01d      	beq.n	8001668 <DMA2_Stream1_IRQHandler+0x4c>
	{
		ADC3_DMA_Flag.Fifo_Error_Flag = true;
 800162c:	4b5a      	ldr	r3, [pc, #360]	@ (8001798 <DMA2_Stream1_IRQHandler+0x17c>)
 800162e:	2201      	movs	r2, #1
 8001630:	715a      	strb	r2, [r3, #5]
		TIM1_CH1_DMA_Flag.Fifo_Error_Flag = true;
 8001632:	4b5a      	ldr	r3, [pc, #360]	@ (800179c <DMA2_Stream1_IRQHandler+0x180>)
 8001634:	2201      	movs	r2, #1
 8001636:	715a      	strb	r2, [r3, #5]
		TIM8_UP_DMA_Flag.Fifo_Error_Flag = true;
 8001638:	4b59      	ldr	r3, [pc, #356]	@ (80017a0 <DMA2_Stream1_IRQHandler+0x184>)
 800163a:	2201      	movs	r2, #1
 800163c:	715a      	strb	r2, [r3, #5]
		TIM8_TRIG_DMA_Flag.Fifo_Error_Flag = true;
 800163e:	4b59      	ldr	r3, [pc, #356]	@ (80017a4 <DMA2_Stream1_IRQHandler+0x188>)
 8001640:	2201      	movs	r2, #1
 8001642:	715a      	strb	r2, [r3, #5]
		TIM8_COM_DMA_Flag.Fifo_Error_Flag = true;
 8001644:	4b58      	ldr	r3, [pc, #352]	@ (80017a8 <DMA2_Stream1_IRQHandler+0x18c>)
 8001646:	2201      	movs	r2, #1
 8001648:	715a      	strb	r2, [r3, #5]
		DCMI_DMA_Flag.Fifo_Error_Flag = true;
 800164a:	4b58      	ldr	r3, [pc, #352]	@ (80017ac <DMA2_Stream1_IRQHandler+0x190>)
 800164c:	2201      	movs	r2, #1
 800164e:	715a      	strb	r2, [r3, #5]
		USART6_RX_DMA_Flag.Fifo_Error_Flag = true;
 8001650:	4b57      	ldr	r3, [pc, #348]	@ (80017b0 <DMA2_Stream1_IRQHandler+0x194>)
 8001652:	2201      	movs	r2, #1
 8001654:	715a      	strb	r2, [r3, #5]
		DMA2_Stream1_Flag.Fifo_Error_Flag = true;
 8001656:	4b57      	ldr	r3, [pc, #348]	@ (80017b4 <DMA2_Stream1_IRQHandler+0x198>)
 8001658:	2201      	movs	r2, #1
 800165a:	715a      	strb	r2, [r3, #5]
		DMA2 -> LIFCR |= DMA_LIFCR_CFEIF1;
 800165c:	4b4d      	ldr	r3, [pc, #308]	@ (8001794 <DMA2_Stream1_IRQHandler+0x178>)
 800165e:	689b      	ldr	r3, [r3, #8]
 8001660:	4a4c      	ldr	r2, [pc, #304]	@ (8001794 <DMA2_Stream1_IRQHandler+0x178>)
 8001662:	f043 0340 	orr.w	r3, r3, #64	@ 0x40
 8001666:	6093      	str	r3, [r2, #8]
	}
	/************************************************************************************************************/
	if(DMA2 -> LISR & DMA_LISR_DMEIF1)
 8001668:	4b4a      	ldr	r3, [pc, #296]	@ (8001794 <DMA2_Stream1_IRQHandler+0x178>)
 800166a:	681b      	ldr	r3, [r3, #0]
 800166c:	f403 7380 	and.w	r3, r3, #256	@ 0x100
 8001670:	2b00      	cmp	r3, #0
 8001672:	d01d      	beq.n	80016b0 <DMA2_Stream1_IRQHandler+0x94>
	{
		ADC3_DMA_Flag.Direct_Mode_Error_Flag = true;
 8001674:	4b48      	ldr	r3, [pc, #288]	@ (8001798 <DMA2_Stream1_IRQHandler+0x17c>)
 8001676:	2201      	movs	r2, #1
 8001678:	711a      	strb	r2, [r3, #4]
		TIM1_CH1_DMA_Flag.Direct_Mode_Error_Flag = true;
 800167a:	4b48      	ldr	r3, [pc, #288]	@ (800179c <DMA2_Stream1_IRQHandler+0x180>)
 800167c:	2201      	movs	r2, #1
 800167e:	711a      	strb	r2, [r3, #4]
		TIM8_UP_DMA_Flag.Direct_Mode_Error_Flag = true;
 8001680:	4b47      	ldr	r3, [pc, #284]	@ (80017a0 <DMA2_Stream1_IRQHandler+0x184>)
 8001682:	2201      	movs	r2, #1
 8001684:	711a      	strb	r2, [r3, #4]
		TIM8_TRIG_DMA_Flag.Direct_Mode_Error_Flag = true;
 8001686:	4b47      	ldr	r3, [pc, #284]	@ (80017a4 <DMA2_Stream1_IRQHandler+0x188>)
 8001688:	2201      	movs	r2, #1
 800168a:	711a      	strb	r2, [r3, #4]
		TIM8_COM_DMA_Flag.Direct_Mode_Error_Flag = true;
 800168c:	4b46      	ldr	r3, [pc, #280]	@ (80017a8 <DMA2_Stream1_IRQHandler+0x18c>)
 800168e:	2201      	movs	r2, #1
 8001690:	711a      	strb	r2, [r3, #4]
		DCMI_DMA_Flag.Direct_Mode_Error_Flag = true;
 8001692:	4b46      	ldr	r3, [pc, #280]	@ (80017ac <DMA2_Stream1_IRQHandler+0x190>)
 8001694:	2201      	movs	r2, #1
 8001696:	711a      	strb	r2, [r3, #4]
		USART6_RX_DMA_Flag.Direct_Mode_Error_Flag = true;
 8001698:	4b45      	ldr	r3, [pc, #276]	@ (80017b0 <DMA2_Stream1_IRQHandler+0x194>)
 800169a:	2201      	movs	r2, #1
 800169c:	711a      	strb	r2, [r3, #4]
		DMA2_Stream1_Flag.Direct_Mode_Error_Flag = true;
 800169e:	4b45      	ldr	r3, [pc, #276]	@ (80017b4 <DMA2_Stream1_IRQHandler+0x198>)
 80016a0:	2201      	movs	r2, #1
 80016a2:	711a      	strb	r2, [r3, #4]
		DMA2 -> LIFCR |= DMA_LIFCR_CDMEIF1;
 80016a4:	4b3b      	ldr	r3, [pc, #236]	@ (8001794 <DMA2_Stream1_IRQHandler+0x178>)
 80016a6:	689b      	ldr	r3, [r3, #8]
 80016a8:	4a3a      	ldr	r2, [pc, #232]	@ (8001794 <DMA2_Stream1_IRQHandler+0x178>)
 80016aa:	f443 7380 	orr.w	r3, r3, #256	@ 0x100
 80016ae:	6093      	str	r3, [r2, #8]
	}
	/************************************************************************************************************/
	if(DMA2 -> LISR & DMA_LISR_TEIF1)
 80016b0:	4b38      	ldr	r3, [pc, #224]	@ (8001794 <DMA2_Stream1_IRQHandler+0x178>)
 80016b2:	681b      	ldr	r3, [r3, #0]
 80016b4:	f403 7300 	and.w	r3, r3, #512	@ 0x200
 80016b8:	2b00      	cmp	r3, #0
 80016ba:	d01d      	beq.n	80016f8 <DMA2_Stream1_IRQHandler+0xdc>
	{
		ADC3_DMA_Flag.Transfer_Error_Flag = true;
 80016bc:	4b36      	ldr	r3, [pc, #216]	@ (8001798 <DMA2_Stream1_IRQHandler+0x17c>)
 80016be:	2201      	movs	r2, #1
 80016c0:	70da      	strb	r2, [r3, #3]
		TIM1_CH1_DMA_Flag.Transfer_Error_Flag = true;
 80016c2:	4b36      	ldr	r3, [pc, #216]	@ (800179c <DMA2_Stream1_IRQHandler+0x180>)
 80016c4:	2201      	movs	r2, #1
 80016c6:	70da      	strb	r2, [r3, #3]
		TIM8_UP_DMA_Flag.Transfer_Error_Flag = true;
 80016c8:	4b35      	ldr	r3, [pc, #212]	@ (80017a0 <DMA2_Stream1_IRQHandler+0x184>)
 80016ca:	2201      	movs	r2, #1
 80016cc:	70da      	strb	r2, [r3, #3]
		TIM8_TRIG_DMA_Flag.Transfer_Error_Flag = true;
 80016ce:	4b35      	ldr	r3, [pc, #212]	@ (80017a4 <DMA2_Stream1_IRQHandler+0x188>)
 80016d0:	2201      	movs	r2, #1
 80016d2:	70da      	strb	r2, [r3, #3]
		TIM8_COM_DMA_Flag.Transfer_Error_Flag = true;
 80016d4:	4b34      	ldr	r3, [pc, #208]	@ (80017a8 <DMA2_Stream1_IRQHandler+0x18c>)
 80016d6:	2201      	movs	r2, #1
 80016d8:	70da      	strb	r2, [r3, #3]
		DCMI_DMA_Flag.Transfer_Error_Flag = true;
 80016da:	4b34      	ldr	r3, [pc, #208]	@ (80017ac <DMA2_Stream1_IRQHandler+0x190>)
 80016dc:	2201      	movs	r2, #1
 80016de:	70da      	strb	r2, [r3, #3]
		USART6_RX_DMA_Flag.Transfer_Error_Flag = true;
 80016e0:	4b33      	ldr	r3, [pc, #204]	@ (80017b0 <DMA2_Stream1_IRQHandler+0x194>)
 80016e2:	2201      	movs	r2, #1
 80016e4:	70da      	strb	r2, [r3, #3]
		DMA2_Stream1_Flag.Transfer_Error_Flag = true;
 80016e6:	4b33      	ldr	r3, [pc, #204]	@ (80017b4 <DMA2_Stream1_IRQHandler+0x198>)
 80016e8:	2201      	movs	r2, #1
 80016ea:	70da      	strb	r2, [r3, #3]
		DMA2 -> LIFCR |= DMA_LIFCR_CTEIF1;
 80016ec:	4b29      	ldr	r3, [pc, #164]	@ (8001794 <DMA2_Stream1_IRQHandler+0x178>)
 80016ee:	689b      	ldr	r3, [r3, #8]
 80016f0:	4a28      	ldr	r2, [pc, #160]	@ (8001794 <DMA2_Stream1_IRQHandler+0x178>)
 80016f2:	f443 7300 	orr.w	r3, r3, #512	@ 0x200
 80016f6:	6093      	str	r3, [r2, #8]
	}
	/************************************************************************************************************/
	if(DMA2 -> LISR & DMA_LISR_HTIF1)
 80016f8:	4b26      	ldr	r3, [pc, #152]	@ (8001794 <DMA2_Stream1_IRQHandler+0x178>)
 80016fa:	681b      	ldr	r3, [r3, #0]
 80016fc:	f403 6380 	and.w	r3, r3, #1024	@ 0x400
 8001700:	2b00      	cmp	r3, #0
 8001702:	d01d      	beq.n	8001740 <DMA2_Stream1_IRQHandler+0x124>
	{
		ADC3_DMA_Flag.Half_Transfer_Complete_Flag = true;
 8001704:	4b24      	ldr	r3, [pc, #144]	@ (8001798 <DMA2_Stream1_IRQHandler+0x17c>)
 8001706:	2201      	movs	r2, #1
 8001708:	709a      	strb	r2, [r3, #2]
		TIM1_CH1_DMA_Flag.Half_Transfer_Complete_Flag = true;
 800170a:	4b24      	ldr	r3, [pc, #144]	@ (800179c <DMA2_Stream1_IRQHandler+0x180>)
 800170c:	2201      	movs	r2, #1
 800170e:	709a      	strb	r2, [r3, #2]
		TIM8_UP_DMA_Flag.Half_Transfer_Complete_Flag = true;
 8001710:	4b23      	ldr	r3, [pc, #140]	@ (80017a0 <DMA2_Stream1_IRQHandler+0x184>)
 8001712:	2201      	movs	r2, #1
 8001714:	709a      	strb	r2, [r3, #2]
		TIM8_TRIG_DMA_Flag.Half_Transfer_Complete_Flag = true;
 8001716:	4b23      	ldr	r3, [pc, #140]	@ (80017a4 <DMA2_Stream1_IRQHandler+0x188>)
 8001718:	2201      	movs	r2, #1
 800171a:	709a      	strb	r2, [r3, #2]
		TIM8_COM_DMA_Flag.Half_Transfer_Complete_Flag = true;
 800171c:	4b22      	ldr	r3, [pc, #136]	@ (80017a8 <DMA2_Stream1_IRQHandler+0x18c>)
 800171e:	2201      	movs	r2, #1
 8001720:	709a      	strb	r2, [r3, #2]
		DCMI_DMA_Flag.Half_Transfer_Complete_Flag = true;
 8001722:	4b22      	ldr	r3, [pc, #136]	@ (80017ac <DMA2_Stream1_IRQHandler+0x190>)
 8001724:	2201      	movs	r2, #1
 8001726:	709a      	strb	r2, [r3, #2]
		USART6_RX_DMA_Flag.Half_Transfer_Complete_Flag = true;
 8001728:	4b21      	ldr	r3, [pc, #132]	@ (80017b0 <DMA2_Stream1_IRQHandler+0x194>)
 800172a:	2201      	movs	r2, #1
 800172c:	709a      	strb	r2, [r3, #2]
		DMA2_Stream1_Flag.Half_Transfer_Complete_Flag = true;
 800172e:	4b21      	ldr	r3, [pc, #132]	@ (80017b4 <DMA2_Stream1_IRQHandler+0x198>)
 8001730:	2201      	movs	r2, #1
 8001732:	709a      	strb	r2, [r3, #2]
		DMA2 -> LIFCR |= DMA_LIFCR_CHTIF1;
 8001734:	4b17      	ldr	r3, [pc, #92]	@ (8001794 <DMA2_Stream1_IRQHandler+0x178>)
 8001736:	689b      	ldr	r3, [r3, #8]
 8001738:	4a16      	ldr	r2, [pc, #88]	@ (8001794 <DMA2_Stream1_IRQHandler+0x178>)
 800173a:	f443 6380 	orr.w	r3, r3, #1024	@ 0x400
 800173e:	6093      	str	r3, [r2, #8]
	}
	/************************************************************************************************************/
	if(DMA2 -> LISR & DMA_LISR_TCIF1)
 8001740:	4b14      	ldr	r3, [pc, #80]	@ (8001794 <DMA2_Stream1_IRQHandler+0x178>)
 8001742:	681b      	ldr	r3, [r3, #0]
 8001744:	f403 6300 	and.w	r3, r3, #2048	@ 0x800
 8001748:	2b00      	cmp	r3, #0
 800174a:	d01d      	beq.n	8001788 <DMA2_Stream1_IRQHandler+0x16c>
	{
		ADC3_DMA_Flag.Transfer_Complete_Flag = true;
 800174c:	4b12      	ldr	r3, [pc, #72]	@ (8001798 <DMA2_Stream1_IRQHandler+0x17c>)
 800174e:	2201      	movs	r2, #1
 8001750:	705a      	strb	r2, [r3, #1]
		TIM1_CH1_DMA_Flag.Transfer_Complete_Flag = true;
 8001752:	4b12      	ldr	r3, [pc, #72]	@ (800179c <DMA2_Stream1_IRQHandler+0x180>)
 8001754:	2201      	movs	r2, #1
 8001756:	705a      	strb	r2, [r3, #1]
		TIM8_UP_DMA_Flag.Transfer_Complete_Flag = true;
 8001758:	4b11      	ldr	r3, [pc, #68]	@ (80017a0 <DMA2_Stream1_IRQHandler+0x184>)
 800175a:	2201      	movs	r2, #1
 800175c:	705a      	strb	r2, [r3, #1]
		TIM8_TRIG_DMA_Flag.Transfer_Complete_Flag = true;
 800175e:	4b11      	ldr	r3, [pc, #68]	@ (80017a4 <DMA2_Stream1_IRQHandler+0x188>)
 8001760:	2201      	movs	r2, #1
 8001762:	705a      	strb	r2, [r3, #1]
		TIM8_COM_DMA_Flag.Transfer_Complete_Flag = true;
 8001764:	4b10      	ldr	r3, [pc, #64]	@ (80017a8 <DMA2_Stream1_IRQHandler+0x18c>)
 8001766:	2201      	movs	r2, #1
 8001768:	705a      	strb	r2, [r3, #1]
		DCMI_DMA_Flag.Transfer_Complete_Flag = true;
 800176a:	4b10      	ldr	r3, [pc, #64]	@ (80017ac <DMA2_Stream1_IRQHandler+0x190>)
 800176c:	2201      	movs	r2, #1
 800176e:	705a      	strb	r2, [r3, #1]
		USART6_RX_DMA_Flag.Transfer_Complete_Flag = true;
 8001770:	4b0f      	ldr	r3, [pc, #60]	@ (80017b0 <DMA2_Stream1_IRQHandler+0x194>)
 8001772:	2201      	movs	r2, #1
 8001774:	705a      	strb	r2, [r3, #1]
		DMA2_Stream1_Flag.Transfer_Complete_Flag = true;
 8001776:	4b0f      	ldr	r3, [pc, #60]	@ (80017b4 <DMA2_Stream1_IRQHandler+0x198>)
 8001778:	2201      	movs	r2, #1
 800177a:	705a      	strb	r2, [r3, #1]
		DMA2 -> LIFCR |= DMA_LIFCR_CTCIF1;
 800177c:	4b05      	ldr	r3, [pc, #20]	@ (8001794 <DMA2_Stream1_IRQHandler+0x178>)
 800177e:	689b      	ldr	r3, [r3, #8]
 8001780:	4a04      	ldr	r2, [pc, #16]	@ (8001794 <DMA2_Stream1_IRQHandler+0x178>)
 8001782:	f443 6300 	orr.w	r3, r3, #2048	@ 0x800
 8001786:	6093      	str	r3, [r2, #8]
	}
}
 8001788:	bf00      	nop
 800178a:	46bd      	mov	sp, r7
 800178c:	f85d 7b04 	ldr.w	r7, [sp], #4
 8001790:	4770      	bx	lr
 8001792:	bf00      	nop
 8001794:	40026400 	.word	0x40026400
 8001798:	20000208 	.word	0x20000208
 800179c:	200000f8 	.word	0x200000f8
 80017a0:	20000128 	.word	0x20000128
 80017a4:	20000150 	.word	0x20000150
 80017a8:	20000158 	.word	0x20000158
 80017ac:	200001f0 	.word	0x200001f0
 80017b0:	200000d0 	.word	0x200000d0
 80017b4:	20000258 	.word	0x20000258

080017b8 <DMA2_Stream2_IRQHandler>:
 * transfer error, half transfer complete, and transfer complete. For each
 * event, it sets the corresponding flag in the `DMA2_Stream2_Flag` structure
 * and clears the respective interrupt flag in the DMA interrupt flag clear register.
 */
void DMA2_Stream2_IRQHandler(void)
{
 80017b8:	b480      	push	{r7}
 80017ba:	af00      	add	r7, sp, #0
	if(DMA2 -> LISR & DMA_LISR_FEIF2)
 80017bc:	4b3e      	ldr	r3, [pc, #248]	@ (80018b8 <DMA2_Stream2_IRQHandler+0x100>)
 80017be:	681b      	ldr	r3, [r3, #0]
 80017c0:	f403 3380 	and.w	r3, r3, #65536	@ 0x10000
 80017c4:	2b00      	cmp	r3, #0
 80017c6:	d011      	beq.n	80017ec <DMA2_Stream2_IRQHandler+0x34>
	{
		TIM8_CH1_DMA_Flag.Fifo_Error_Flag = true;
 80017c8:	4b3c      	ldr	r3, [pc, #240]	@ (80018bc <DMA2_Stream2_IRQHandler+0x104>)
 80017ca:	2201      	movs	r2, #1
 80017cc:	715a      	strb	r2, [r3, #5]
		USART1_RX_DMA_Flag.Fifo_Error_Flag = true;
 80017ce:	4b3c      	ldr	r3, [pc, #240]	@ (80018c0 <DMA2_Stream2_IRQHandler+0x108>)
 80017d0:	2201      	movs	r2, #1
 80017d2:	715a      	strb	r2, [r3, #5]
		ADC2_DMA_Flag.Fifo_Error_Flag = true;
 80017d4:	4b3b      	ldr	r3, [pc, #236]	@ (80018c4 <DMA2_Stream2_IRQHandler+0x10c>)
 80017d6:	2201      	movs	r2, #1
 80017d8:	715a      	strb	r2, [r3, #5]
		DMA2_Stream2_Flag.Fifo_Error_Flag = true;
 80017da:	4b3b      	ldr	r3, [pc, #236]	@ (80018c8 <DMA2_Stream2_IRQHandler+0x110>)
 80017dc:	2201      	movs	r2, #1
 80017de:	715a      	strb	r2, [r3, #5]
		DMA2 -> LIFCR |= DMA_LIFCR_CFEIF2;
 80017e0:	4b35      	ldr	r3, [pc, #212]	@ (80018b8 <DMA2_Stream2_IRQHandler+0x100>)
 80017e2:	689b      	ldr	r3, [r3, #8]
 80017e4:	4a34      	ldr	r2, [pc, #208]	@ (80018b8 <DMA2_Stream2_IRQHandler+0x100>)
 80017e6:	f443 3380 	orr.w	r3, r3, #65536	@ 0x10000
 80017ea:	6093      	str	r3, [r2, #8]
	}
	/************************************************************************************************************/
	if(DMA2 -> LISR & DMA_LISR_DMEIF2)
 80017ec:	4b32      	ldr	r3, [pc, #200]	@ (80018b8 <DMA2_Stream2_IRQHandler+0x100>)
 80017ee:	681b      	ldr	r3, [r3, #0]
 80017f0:	f403 2380 	and.w	r3, r3, #262144	@ 0x40000
 80017f4:	2b00      	cmp	r3, #0
 80017f6:	d011      	beq.n	800181c <DMA2_Stream2_IRQHandler+0x64>
	{
		TIM8_CH1_DMA_Flag.Direct_Mode_Error_Flag = true;
 80017f8:	4b30      	ldr	r3, [pc, #192]	@ (80018bc <DMA2_Stream2_IRQHandler+0x104>)
 80017fa:	2201      	movs	r2, #1
 80017fc:	711a      	strb	r2, [r3, #4]
		USART1_RX_DMA_Flag.Direct_Mode_Error_Flag = true;
 80017fe:	4b30      	ldr	r3, [pc, #192]	@ (80018c0 <DMA2_Stream2_IRQHandler+0x108>)
 8001800:	2201      	movs	r2, #1
 8001802:	711a      	strb	r2, [r3, #4]
		ADC2_DMA_Flag.Direct_Mode_Error_Flag = true;
 8001804:	4b2f      	ldr	r3, [pc, #188]	@ (80018c4 <DMA2_Stream2_IRQHandler+0x10c>)
 8001806:	2201      	movs	r2, #1
 8001808:	711a      	strb	r2, [r3, #4]
		DMA2_Stream2_Flag.Direct_Mode_Error_Flag = true;
 800180a:	4b2f      	ldr	r3, [pc, #188]	@ (80018c8 <DMA2_Stream2_IRQHandler+0x110>)
 800180c:	2201      	movs	r2, #1
 800180e:	711a      	strb	r2, [r3, #4]
		DMA2 -> LIFCR |= DMA_LIFCR_CDMEIF2;
 8001810:	4b29      	ldr	r3, [pc, #164]	@ (80018b8 <DMA2_Stream2_IRQHandler+0x100>)
 8001812:	689b      	ldr	r3, [r3, #8]
 8001814:	4a28      	ldr	r2, [pc, #160]	@ (80018b8 <DMA2_Stream2_IRQHandler+0x100>)
 8001816:	f443 2380 	orr.w	r3, r3, #262144	@ 0x40000
 800181a:	6093      	str	r3, [r2, #8]
	}
	/************************************************************************************************************/
	if(DMA2 -> LISR & DMA_LISR_TEIF2)
 800181c:	4b26      	ldr	r3, [pc, #152]	@ (80018b8 <DMA2_Stream2_IRQHandler+0x100>)
 800181e:	681b      	ldr	r3, [r3, #0]
 8001820:	f403 2300 	and.w	r3, r3, #524288	@ 0x80000
 8001824:	2b00      	cmp	r3, #0
 8001826:	d011      	beq.n	800184c <DMA2_Stream2_IRQHandler+0x94>
	{
		TIM8_CH1_DMA_Flag.Transfer_Error_Flag = true;
 8001828:	4b24      	ldr	r3, [pc, #144]	@ (80018bc <DMA2_Stream2_IRQHandler+0x104>)
 800182a:	2201      	movs	r2, #1
 800182c:	70da      	strb	r2, [r3, #3]
		USART1_RX_DMA_Flag.Transfer_Error_Flag = true;
 800182e:	4b24      	ldr	r3, [pc, #144]	@ (80018c0 <DMA2_Stream2_IRQHandler+0x108>)
 8001830:	2201      	movs	r2, #1
 8001832:	70da      	strb	r2, [r3, #3]
		ADC2_DMA_Flag.Transfer_Error_Flag = true;
 8001834:	4b23      	ldr	r3, [pc, #140]	@ (80018c4 <DMA2_Stream2_IRQHandler+0x10c>)
 8001836:	2201      	movs	r2, #1
 8001838:	70da      	strb	r2, [r3, #3]
		DMA2_Stream2_Flag.Transfer_Error_Flag = true;
 800183a:	4b23      	ldr	r3, [pc, #140]	@ (80018c8 <DMA2_Stream2_IRQHandler+0x110>)
 800183c:	2201      	movs	r2, #1
 800183e:	70da      	strb	r2, [r3, #3]
		DMA2 -> LIFCR |= DMA_LIFCR_CTEIF2;
 8001840:	4b1d      	ldr	r3, [pc, #116]	@ (80018b8 <DMA2_Stream2_IRQHandler+0x100>)
 8001842:	689b      	ldr	r3, [r3, #8]
 8001844:	4a1c      	ldr	r2, [pc, #112]	@ (80018b8 <DMA2_Stream2_IRQHandler+0x100>)
 8001846:	f443 2300 	orr.w	r3, r3, #524288	@ 0x80000
 800184a:	6093      	str	r3, [r2, #8]
	}
	/************************************************************************************************************/
	if(DMA2 -> LISR & DMA_LISR_HTIF2)
 800184c:	4b1a      	ldr	r3, [pc, #104]	@ (80018b8 <DMA2_Stream2_IRQHandler+0x100>)
 800184e:	681b      	ldr	r3, [r3, #0]
 8001850:	f403 1380 	and.w	r3, r3, #1048576	@ 0x100000
 8001854:	2b00      	cmp	r3, #0
 8001856:	d011      	beq.n	800187c <DMA2_Stream2_IRQHandler+0xc4>
	{
		TIM8_CH1_DMA_Flag.Half_Transfer_Complete_Flag = true;
 8001858:	4b18      	ldr	r3, [pc, #96]	@ (80018bc <DMA2_Stream2_IRQHandler+0x104>)
 800185a:	2201      	movs	r2, #1
 800185c:	709a      	strb	r2, [r3, #2]
		USART1_RX_DMA_Flag.Half_Transfer_Complete_Flag = true;
 800185e:	4b18      	ldr	r3, [pc, #96]	@ (80018c0 <DMA2_Stream2_IRQHandler+0x108>)
 8001860:	2201      	movs	r2, #1
 8001862:	709a      	strb	r2, [r3, #2]
		ADC2_DMA_Flag.Half_Transfer_Complete_Flag = true;
 8001864:	4b17      	ldr	r3, [pc, #92]	@ (80018c4 <DMA2_Stream2_IRQHandler+0x10c>)
 8001866:	2201      	movs	r2, #1
 8001868:	709a      	strb	r2, [r3, #2]
		DMA2_Stream2_Flag.Half_Transfer_Complete_Flag = true;
 800186a:	4b17      	ldr	r3, [pc, #92]	@ (80018c8 <DMA2_Stream2_IRQHandler+0x110>)
 800186c:	2201      	movs	r2, #1
 800186e:	709a      	strb	r2, [r3, #2]
		DMA2 -> LIFCR |= DMA_LIFCR_CHTIF2;
 8001870:	4b11      	ldr	r3, [pc, #68]	@ (80018b8 <DMA2_Stream2_IRQHandler+0x100>)
 8001872:	689b      	ldr	r3, [r3, #8]
 8001874:	4a10      	ldr	r2, [pc, #64]	@ (80018b8 <DMA2_Stream2_IRQHandler+0x100>)
 8001876:	f443 1380 	orr.w	r3, r3, #1048576	@ 0x100000
 800187a:	6093      	str	r3, [r2, #8]
	}
	/************************************************************************************************************/
	if(DMA2 -> LISR & DMA_LISR_TCIF2)
 800187c:	4b0e      	ldr	r3, [pc, #56]	@ (80018b8 <DMA2_Stream2_IRQHandler+0x100>)
 800187e:	681b      	ldr	r3, [r3, #0]
 8001880:	f403 1300 	and.w	r3, r3, #2097152	@ 0x200000
 8001884:	2b00      	cmp	r3, #0
 8001886:	d011      	beq.n	80018ac <DMA2_Stream2_IRQHandler+0xf4>
	{
		TIM8_CH1_DMA_Flag.Transfer_Complete_Flag = true;
 8001888:	4b0c      	ldr	r3, [pc, #48]	@ (80018bc <DMA2_Stream2_IRQHandler+0x104>)
 800188a:	2201      	movs	r2, #1
 800188c:	705a      	strb	r2, [r3, #1]
		USART1_RX_DMA_Flag.Transfer_Complete_Flag = true;
 800188e:	4b0c      	ldr	r3, [pc, #48]	@ (80018c0 <DMA2_Stream2_IRQHandler+0x108>)
 8001890:	2201      	movs	r2, #1
 8001892:	705a      	strb	r2, [r3, #1]
		ADC2_DMA_Flag.Transfer_Complete_Flag = true;
 8001894:	4b0b      	ldr	r3, [pc, #44]	@ (80018c4 <DMA2_Stream2_IRQHandler+0x10c>)
 8001896:	2201      	movs	r2, #1
 8001898:	705a      	strb	r2, [r3, #1]
		DMA2_Stream2_Flag.Transfer_Complete_Flag = true;
 800189a:	4b0b      	ldr	r3, [pc, #44]	@ (80018c8 <DMA2_Stream2_IRQHandler+0x110>)
 800189c:	2201      	movs	r2, #1
 800189e:	705a      	strb	r2, [r3, #1]
		DMA2 -> LIFCR |= DMA_LIFCR_CTCIF2;
 80018a0:	4b05      	ldr	r3, [pc, #20]	@ (80018b8 <DMA2_Stream2_IRQHandler+0x100>)
 80018a2:	689b      	ldr	r3, [r3, #8]
 80018a4:	4a04      	ldr	r2, [pc, #16]	@ (80018b8 <DMA2_Stream2_IRQHandler+0x100>)
 80018a6:	f443 1300 	orr.w	r3, r3, #2097152	@ 0x200000
 80018aa:	6093      	str	r3, [r2, #8]
	}
}
 80018ac:	bf00      	nop
 80018ae:	46bd      	mov	sp, r7
 80018b0:	f85d 7b04 	ldr.w	r7, [sp], #4
 80018b4:	4770      	bx	lr
 80018b6:	bf00      	nop
 80018b8:	40026400 	.word	0x40026400
 80018bc:	20000130 	.word	0x20000130
 80018c0:	20000088 	.word	0x20000088
 80018c4:	20000200 	.word	0x20000200
 80018c8:	20000260 	.word	0x20000260

080018cc <DMA2_Stream3_IRQHandler>:
 * transfer error, half transfer complete, and transfer complete. For each
 * event, it sets the corresponding flag in the `DMA2_Stream3_Flag` structure
 * and clears the respective interrupt flag in the DMA interrupt flag clear register.
 */
void DMA2_Stream3_IRQHandler(void)
{
 80018cc:	b480      	push	{r7}
 80018ce:	af00      	add	r7, sp, #0
	if(DMA2 -> LISR & DMA_LISR_FEIF3)
 80018d0:	4b36      	ldr	r3, [pc, #216]	@ (80019ac <DMA2_Stream3_IRQHandler+0xe0>)
 80018d2:	681b      	ldr	r3, [r3, #0]
 80018d4:	f403 0380 	and.w	r3, r3, #4194304	@ 0x400000
 80018d8:	2b00      	cmp	r3, #0
 80018da:	d00e      	beq.n	80018fa <DMA2_Stream3_IRQHandler+0x2e>
	{
		SDIO_RXTX_DMA_Flag.Fifo_Error_Flag = true;
 80018dc:	4b34      	ldr	r3, [pc, #208]	@ (80019b0 <DMA2_Stream3_IRQHandler+0xe4>)
 80018de:	2201      	movs	r2, #1
 80018e0:	715a      	strb	r2, [r3, #5]
		SPI1_TX_DMA_Flag.Fifo_Error_Flag = true;
 80018e2:	4b34      	ldr	r3, [pc, #208]	@ (80019b4 <DMA2_Stream3_IRQHandler+0xe8>)
 80018e4:	2201      	movs	r2, #1
 80018e6:	715a      	strb	r2, [r3, #5]
		DMA2_Stream3_Flag.Fifo_Error_Flag = true;
 80018e8:	4b33      	ldr	r3, [pc, #204]	@ (80019b8 <DMA2_Stream3_IRQHandler+0xec>)
 80018ea:	2201      	movs	r2, #1
 80018ec:	715a      	strb	r2, [r3, #5]
		DMA2 -> LIFCR |= DMA_LIFCR_CFEIF3;
 80018ee:	4b2f      	ldr	r3, [pc, #188]	@ (80019ac <DMA2_Stream3_IRQHandler+0xe0>)
 80018f0:	689b      	ldr	r3, [r3, #8]
 80018f2:	4a2e      	ldr	r2, [pc, #184]	@ (80019ac <DMA2_Stream3_IRQHandler+0xe0>)
 80018f4:	f443 0380 	orr.w	r3, r3, #4194304	@ 0x400000
 80018f8:	6093      	str	r3, [r2, #8]
	}
	/************************************************************************************************************/
	if(DMA2 -> LISR & DMA_LISR_DMEIF3)
 80018fa:	4b2c      	ldr	r3, [pc, #176]	@ (80019ac <DMA2_Stream3_IRQHandler+0xe0>)
 80018fc:	681b      	ldr	r3, [r3, #0]
 80018fe:	f003 7380 	and.w	r3, r3, #16777216	@ 0x1000000
 8001902:	2b00      	cmp	r3, #0
 8001904:	d00e      	beq.n	8001924 <DMA2_Stream3_IRQHandler+0x58>
	{
		SDIO_RXTX_DMA_Flag.Direct_Mode_Error_Flag = true;
 8001906:	4b2a      	ldr	r3, [pc, #168]	@ (80019b0 <DMA2_Stream3_IRQHandler+0xe4>)
 8001908:	2201      	movs	r2, #1
 800190a:	711a      	strb	r2, [r3, #4]
		SPI1_TX_DMA_Flag.Direct_Mode_Error_Flag = true;
 800190c:	4b29      	ldr	r3, [pc, #164]	@ (80019b4 <DMA2_Stream3_IRQHandler+0xe8>)
 800190e:	2201      	movs	r2, #1
 8001910:	711a      	strb	r2, [r3, #4]
		DMA2_Stream3_Flag.Direct_Mode_Error_Flag = true;
 8001912:	4b29      	ldr	r3, [pc, #164]	@ (80019b8 <DMA2_Stream3_IRQHandler+0xec>)
 8001914:	2201      	movs	r2, #1
 8001916:	711a      	strb	r2, [r3, #4]
		DMA2 -> LIFCR |= DMA_LIFCR_CDMEIF3;
 8001918:	4b24      	ldr	r3, [pc, #144]	@ (80019ac <DMA2_Stream3_IRQHandler+0xe0>)
 800191a:	689b      	ldr	r3, [r3, #8]
 800191c:	4a23      	ldr	r2, [pc, #140]	@ (80019ac <DMA2_Stream3_IRQHandler+0xe0>)
 800191e:	f043 7380 	orr.w	r3, r3, #16777216	@ 0x1000000
 8001922:	6093      	str	r3, [r2, #8]
	}
	/************************************************************************************************************/
	if(DMA2 -> LISR & DMA_LISR_TEIF3)
 8001924:	4b21      	ldr	r3, [pc, #132]	@ (80019ac <DMA2_Stream3_IRQHandler+0xe0>)
 8001926:	681b      	ldr	r3, [r3, #0]
 8001928:	f003 7300 	and.w	r3, r3, #33554432	@ 0x2000000
 800192c:	2b00      	cmp	r3, #0
 800192e:	d00e      	beq.n	800194e <DMA2_Stream3_IRQHandler+0x82>
	{
		SDIO_RXTX_DMA_Flag.Transfer_Error_Flag = true;
 8001930:	4b1f      	ldr	r3, [pc, #124]	@ (80019b0 <DMA2_Stream3_IRQHandler+0xe4>)
 8001932:	2201      	movs	r2, #1
 8001934:	70da      	strb	r2, [r3, #3]
		SPI1_TX_DMA_Flag.Transfer_Error_Flag = true;
 8001936:	4b1f      	ldr	r3, [pc, #124]	@ (80019b4 <DMA2_Stream3_IRQHandler+0xe8>)
 8001938:	2201      	movs	r2, #1
 800193a:	70da      	strb	r2, [r3, #3]
		DMA2_Stream3_Flag.Transfer_Error_Flag = true;
 800193c:	4b1e      	ldr	r3, [pc, #120]	@ (80019b8 <DMA2_Stream3_IRQHandler+0xec>)
 800193e:	2201      	movs	r2, #1
 8001940:	70da      	strb	r2, [r3, #3]
		DMA2 -> LIFCR |= DMA_LIFCR_CTEIF3;
 8001942:	4b1a      	ldr	r3, [pc, #104]	@ (80019ac <DMA2_Stream3_IRQHandler+0xe0>)
 8001944:	689b      	ldr	r3, [r3, #8]
 8001946:	4a19      	ldr	r2, [pc, #100]	@ (80019ac <DMA2_Stream3_IRQHandler+0xe0>)
 8001948:	f043 7300 	orr.w	r3, r3, #33554432	@ 0x2000000
 800194c:	6093      	str	r3, [r2, #8]
	}
	/************************************************************************************************************/
	if(DMA2 -> LISR & DMA_LISR_HTIF3)
 800194e:	4b17      	ldr	r3, [pc, #92]	@ (80019ac <DMA2_Stream3_IRQHandler+0xe0>)
 8001950:	681b      	ldr	r3, [r3, #0]
 8001952:	f003 6380 	and.w	r3, r3, #67108864	@ 0x4000000
 8001956:	2b00      	cmp	r3, #0
 8001958:	d00e      	beq.n	8001978 <DMA2_Stream3_IRQHandler+0xac>
	{
		SDIO_RXTX_DMA_Flag.Half_Transfer_Complete_Flag = true;
 800195a:	4b15      	ldr	r3, [pc, #84]	@ (80019b0 <DMA2_Stream3_IRQHandler+0xe4>)
 800195c:	2201      	movs	r2, #1
 800195e:	709a      	strb	r2, [r3, #2]
		SPI1_TX_DMA_Flag.Half_Transfer_Complete_Flag = true;
 8001960:	4b14      	ldr	r3, [pc, #80]	@ (80019b4 <DMA2_Stream3_IRQHandler+0xe8>)
 8001962:	2201      	movs	r2, #1
 8001964:	709a      	strb	r2, [r3, #2]
		DMA2_Stream3_Flag.Half_Transfer_Complete_Flag = true;
 8001966:	4b14      	ldr	r3, [pc, #80]	@ (80019b8 <DMA2_Stream3_IRQHandler+0xec>)
 8001968:	2201      	movs	r2, #1
 800196a:	709a      	strb	r2, [r3, #2]
		DMA2 -> LIFCR |= DMA_LIFCR_CHTIF3;
 800196c:	4b0f      	ldr	r3, [pc, #60]	@ (80019ac <DMA2_Stream3_IRQHandler+0xe0>)
 800196e:	689b      	ldr	r3, [r3, #8]
 8001970:	4a0e      	ldr	r2, [pc, #56]	@ (80019ac <DMA2_Stream3_IRQHandler+0xe0>)
 8001972:	f043 6380 	orr.w	r3, r3, #67108864	@ 0x4000000
 8001976:	6093      	str	r3, [r2, #8]
	}
	/************************************************************************************************************/
	if(DMA2 -> LISR & DMA_LISR_TCIF3)
 8001978:	4b0c      	ldr	r3, [pc, #48]	@ (80019ac <DMA2_Stream3_IRQHandler+0xe0>)
 800197a:	681b      	ldr	r3, [r3, #0]
 800197c:	f003 6300 	and.w	r3, r3, #134217728	@ 0x8000000
 8001980:	2b00      	cmp	r3, #0
 8001982:	d00e      	beq.n	80019a2 <DMA2_Stream3_IRQHandler+0xd6>
	{
		SDIO_RXTX_DMA_Flag.Transfer_Complete_Flag = true;
 8001984:	4b0a      	ldr	r3, [pc, #40]	@ (80019b0 <DMA2_Stream3_IRQHandler+0xe4>)
 8001986:	2201      	movs	r2, #1
 8001988:	705a      	strb	r2, [r3, #1]
		SPI1_TX_DMA_Flag.Transfer_Complete_Flag = true;
 800198a:	4b0a      	ldr	r3, [pc, #40]	@ (80019b4 <DMA2_Stream3_IRQHandler+0xe8>)
 800198c:	2201      	movs	r2, #1
 800198e:	705a      	strb	r2, [r3, #1]
		DMA2_Stream3_Flag.Transfer_Complete_Flag = true;
 8001990:	4b09      	ldr	r3, [pc, #36]	@ (80019b8 <DMA2_Stream3_IRQHandler+0xec>)
 8001992:	2201      	movs	r2, #1
 8001994:	705a      	strb	r2, [r3, #1]
		DMA2 -> LIFCR |= DMA_LIFCR_CTCIF3;
 8001996:	4b05      	ldr	r3, [pc, #20]	@ (80019ac <DMA2_Stream3_IRQHandler+0xe0>)
 8001998:	689b      	ldr	r3, [r3, #8]
 800199a:	4a04      	ldr	r2, [pc, #16]	@ (80019ac <DMA2_Stream3_IRQHandler+0xe0>)
 800199c:	f043 6300 	orr.w	r3, r3, #134217728	@ 0x8000000
 80019a0:	6093      	str	r3, [r2, #8]
	}
}
 80019a2:	bf00      	nop
 80019a4:	46bd      	mov	sp, r7
 80019a6:	f85d 7b04 	ldr.w	r7, [sp], #4
 80019aa:	4770      	bx	lr
 80019ac:	40026400 	.word	0x40026400
 80019b0:	200001e8 	.word	0x200001e8
 80019b4:	20000070 	.word	0x20000070
 80019b8:	20000268 	.word	0x20000268

080019bc <DMA2_Stream4_IRQHandler>:
 * transfer error, half transfer complete, and transfer complete. For each
 * event, it sets the corresponding flag in the `DMA2_Stream4_Flag` structure
 * and clears the respective interrupt flag in the DMA interrupt flag clear register.
 */
void DMA2_Stream4_IRQHandler(void)
{
 80019bc:	b480      	push	{r7}
 80019be:	af00      	add	r7, sp, #0
	if(DMA2 -> HISR & DMA_HISR_FEIF4)
 80019c0:	4b36      	ldr	r3, [pc, #216]	@ (8001a9c <DMA2_Stream4_IRQHandler+0xe0>)
 80019c2:	685b      	ldr	r3, [r3, #4]
 80019c4:	f003 0301 	and.w	r3, r3, #1
 80019c8:	2b00      	cmp	r3, #0
 80019ca:	d00e      	beq.n	80019ea <DMA2_Stream4_IRQHandler+0x2e>
	{
		TIM1_CH4_DMA_Flag.Fifo_Error_Flag = true;
 80019cc:	4b34      	ldr	r3, [pc, #208]	@ (8001aa0 <DMA2_Stream4_IRQHandler+0xe4>)
 80019ce:	2201      	movs	r2, #1
 80019d0:	715a      	strb	r2, [r3, #5]
		TIM8_CH2_DMA_Flag.Fifo_Error_Flag = true;
 80019d2:	4b34      	ldr	r3, [pc, #208]	@ (8001aa4 <DMA2_Stream4_IRQHandler+0xe8>)
 80019d4:	2201      	movs	r2, #1
 80019d6:	715a      	strb	r2, [r3, #5]
		DMA2_Stream4_Flag.Fifo_Error_Flag = true;
 80019d8:	4b33      	ldr	r3, [pc, #204]	@ (8001aa8 <DMA2_Stream4_IRQHandler+0xec>)
 80019da:	2201      	movs	r2, #1
 80019dc:	715a      	strb	r2, [r3, #5]
		DMA2 -> HIFCR |= DMA_HIFCR_CFEIF4;
 80019de:	4b2f      	ldr	r3, [pc, #188]	@ (8001a9c <DMA2_Stream4_IRQHandler+0xe0>)
 80019e0:	68db      	ldr	r3, [r3, #12]
 80019e2:	4a2e      	ldr	r2, [pc, #184]	@ (8001a9c <DMA2_Stream4_IRQHandler+0xe0>)
 80019e4:	f043 0301 	orr.w	r3, r3, #1
 80019e8:	60d3      	str	r3, [r2, #12]
	}
	/************************************************************************************************************/
	if(DMA2 -> HISR & DMA_HISR_DMEIF4)
 80019ea:	4b2c      	ldr	r3, [pc, #176]	@ (8001a9c <DMA2_Stream4_IRQHandler+0xe0>)
 80019ec:	685b      	ldr	r3, [r3, #4]
 80019ee:	f003 0304 	and.w	r3, r3, #4
 80019f2:	2b00      	cmp	r3, #0
 80019f4:	d00e      	beq.n	8001a14 <DMA2_Stream4_IRQHandler+0x58>
	{
		TIM1_CH4_DMA_Flag.Direct_Mode_Error_Flag = true;
 80019f6:	4b2a      	ldr	r3, [pc, #168]	@ (8001aa0 <DMA2_Stream4_IRQHandler+0xe4>)
 80019f8:	2201      	movs	r2, #1
 80019fa:	711a      	strb	r2, [r3, #4]
		TIM8_CH2_DMA_Flag.Direct_Mode_Error_Flag = true;
 80019fc:	4b29      	ldr	r3, [pc, #164]	@ (8001aa4 <DMA2_Stream4_IRQHandler+0xe8>)
 80019fe:	2201      	movs	r2, #1
 8001a00:	711a      	strb	r2, [r3, #4]
		DMA2_Stream4_Flag.Direct_Mode_Error_Flag = true;
 8001a02:	4b29      	ldr	r3, [pc, #164]	@ (8001aa8 <DMA2_Stream4_IRQHandler+0xec>)
 8001a04:	2201      	movs	r2, #1
 8001a06:	711a      	strb	r2, [r3, #4]
		DMA2 -> HIFCR |= DMA_HIFCR_CDMEIF4;
 8001a08:	4b24      	ldr	r3, [pc, #144]	@ (8001a9c <DMA2_Stream4_IRQHandler+0xe0>)
 8001a0a:	68db      	ldr	r3, [r3, #12]
 8001a0c:	4a23      	ldr	r2, [pc, #140]	@ (8001a9c <DMA2_Stream4_IRQHandler+0xe0>)
 8001a0e:	f043 0304 	orr.w	r3, r3, #4
 8001a12:	60d3      	str	r3, [r2, #12]
	}
	/************************************************************************************************************/
	if(DMA2 -> HISR & DMA_HISR_TEIF4)
 8001a14:	4b21      	ldr	r3, [pc, #132]	@ (8001a9c <DMA2_Stream4_IRQHandler+0xe0>)
 8001a16:	685b      	ldr	r3, [r3, #4]
 8001a18:	f003 0308 	and.w	r3, r3, #8
 8001a1c:	2b00      	cmp	r3, #0
 8001a1e:	d00e      	beq.n	8001a3e <DMA2_Stream4_IRQHandler+0x82>
	{
		TIM1_CH4_DMA_Flag.Transfer_Error_Flag = true;
 8001a20:	4b1f      	ldr	r3, [pc, #124]	@ (8001aa0 <DMA2_Stream4_IRQHandler+0xe4>)
 8001a22:	2201      	movs	r2, #1
 8001a24:	70da      	strb	r2, [r3, #3]
		TIM8_CH2_DMA_Flag.Transfer_Error_Flag = true;
 8001a26:	4b1f      	ldr	r3, [pc, #124]	@ (8001aa4 <DMA2_Stream4_IRQHandler+0xe8>)
 8001a28:	2201      	movs	r2, #1
 8001a2a:	70da      	strb	r2, [r3, #3]
		DMA2_Stream4_Flag.Transfer_Error_Flag = true;
 8001a2c:	4b1e      	ldr	r3, [pc, #120]	@ (8001aa8 <DMA2_Stream4_IRQHandler+0xec>)
 8001a2e:	2201      	movs	r2, #1
 8001a30:	70da      	strb	r2, [r3, #3]
		DMA2 -> HIFCR |= DMA_HIFCR_CTEIF4;
 8001a32:	4b1a      	ldr	r3, [pc, #104]	@ (8001a9c <DMA2_Stream4_IRQHandler+0xe0>)
 8001a34:	68db      	ldr	r3, [r3, #12]
 8001a36:	4a19      	ldr	r2, [pc, #100]	@ (8001a9c <DMA2_Stream4_IRQHandler+0xe0>)
 8001a38:	f043 0308 	orr.w	r3, r3, #8
 8001a3c:	60d3      	str	r3, [r2, #12]
	}
	/************************************************************************************************************/
	if(DMA2 -> HISR & DMA_HISR_HTIF4)
 8001a3e:	4b17      	ldr	r3, [pc, #92]	@ (8001a9c <DMA2_Stream4_IRQHandler+0xe0>)
 8001a40:	685b      	ldr	r3, [r3, #4]
 8001a42:	f003 0310 	and.w	r3, r3, #16
 8001a46:	2b00      	cmp	r3, #0
 8001a48:	d00e      	beq.n	8001a68 <DMA2_Stream4_IRQHandler+0xac>
	{
		TIM1_CH4_DMA_Flag.Half_Transfer_Complete_Flag = true;
 8001a4a:	4b15      	ldr	r3, [pc, #84]	@ (8001aa0 <DMA2_Stream4_IRQHandler+0xe4>)
 8001a4c:	2201      	movs	r2, #1
 8001a4e:	709a      	strb	r2, [r3, #2]
		TIM8_CH2_DMA_Flag.Half_Transfer_Complete_Flag = true;
 8001a50:	4b14      	ldr	r3, [pc, #80]	@ (8001aa4 <DMA2_Stream4_IRQHandler+0xe8>)
 8001a52:	2201      	movs	r2, #1
 8001a54:	709a      	strb	r2, [r3, #2]
		DMA2_Stream4_Flag.Half_Transfer_Complete_Flag = true;
 8001a56:	4b14      	ldr	r3, [pc, #80]	@ (8001aa8 <DMA2_Stream4_IRQHandler+0xec>)
 8001a58:	2201      	movs	r2, #1
 8001a5a:	709a      	strb	r2, [r3, #2]
		DMA2 -> HIFCR |= DMA_HIFCR_CHTIF4;
 8001a5c:	4b0f      	ldr	r3, [pc, #60]	@ (8001a9c <DMA2_Stream4_IRQHandler+0xe0>)
 8001a5e:	68db      	ldr	r3, [r3, #12]
 8001a60:	4a0e      	ldr	r2, [pc, #56]	@ (8001a9c <DMA2_Stream4_IRQHandler+0xe0>)
 8001a62:	f043 0310 	orr.w	r3, r3, #16
 8001a66:	60d3      	str	r3, [r2, #12]
	}
	/************************************************************************************************************/
	if(DMA2 -> HISR & DMA_HISR_TCIF4)
 8001a68:	4b0c      	ldr	r3, [pc, #48]	@ (8001a9c <DMA2_Stream4_IRQHandler+0xe0>)
 8001a6a:	685b      	ldr	r3, [r3, #4]
 8001a6c:	f003 0320 	and.w	r3, r3, #32
 8001a70:	2b00      	cmp	r3, #0
 8001a72:	d00e      	beq.n	8001a92 <DMA2_Stream4_IRQHandler+0xd6>
	{
		TIM1_CH4_DMA_Flag.Transfer_Complete_Flag = true;
 8001a74:	4b0a      	ldr	r3, [pc, #40]	@ (8001aa0 <DMA2_Stream4_IRQHandler+0xe4>)
 8001a76:	2201      	movs	r2, #1
 8001a78:	705a      	strb	r2, [r3, #1]
		TIM8_CH2_DMA_Flag.Transfer_Complete_Flag = true;
 8001a7a:	4b0a      	ldr	r3, [pc, #40]	@ (8001aa4 <DMA2_Stream4_IRQHandler+0xe8>)
 8001a7c:	2201      	movs	r2, #1
 8001a7e:	705a      	strb	r2, [r3, #1]
		DMA2_Stream4_Flag.Transfer_Complete_Flag = true;
 8001a80:	4b09      	ldr	r3, [pc, #36]	@ (8001aa8 <DMA2_Stream4_IRQHandler+0xec>)
 8001a82:	2201      	movs	r2, #1
 8001a84:	705a      	strb	r2, [r3, #1]
		DMA2 -> HIFCR |= DMA_HIFCR_CTCIF4;
 8001a86:	4b05      	ldr	r3, [pc, #20]	@ (8001a9c <DMA2_Stream4_IRQHandler+0xe0>)
 8001a88:	68db      	ldr	r3, [r3, #12]
 8001a8a:	4a04      	ldr	r2, [pc, #16]	@ (8001a9c <DMA2_Stream4_IRQHandler+0xe0>)
 8001a8c:	f043 0320 	orr.w	r3, r3, #32
 8001a90:	60d3      	str	r3, [r2, #12]
	}
}
 8001a92:	bf00      	nop
 8001a94:	46bd      	mov	sp, r7
 8001a96:	f85d 7b04 	ldr.w	r7, [sp], #4
 8001a9a:	4770      	bx	lr
 8001a9c:	40026400 	.word	0x40026400
 8001aa0:	20000110 	.word	0x20000110
 8001aa4:	20000138 	.word	0x20000138
 8001aa8:	20000270 	.word	0x20000270

08001aac <DMA2_Stream5_IRQHandler>:
 * transfer error, half transfer complete, and transfer complete. For each
 * event, it sets the corresponding flag in the `DMA2_Stream5_Flag` structure
 * and clears the respective interrupt flag in the DMA interrupt flag clear register.
 */
void DMA2_Stream5_IRQHandler(void)
{
 8001aac:	b480      	push	{r7}
 8001aae:	af00      	add	r7, sp, #0
	if(DMA2 -> HISR & DMA_HISR_FEIF5)
 8001ab0:	4b2f      	ldr	r3, [pc, #188]	@ (8001b70 <DMA2_Stream5_IRQHandler+0xc4>)
 8001ab2:	685b      	ldr	r3, [r3, #4]
 8001ab4:	f003 0340 	and.w	r3, r3, #64	@ 0x40
 8001ab8:	2b00      	cmp	r3, #0
 8001aba:	d00b      	beq.n	8001ad4 <DMA2_Stream5_IRQHandler+0x28>
	{
		TIM1_UP_DMA_Flag.Fifo_Error_Flag = true;
 8001abc:	4b2d      	ldr	r3, [pc, #180]	@ (8001b74 <DMA2_Stream5_IRQHandler+0xc8>)
 8001abe:	2201      	movs	r2, #1
 8001ac0:	715a      	strb	r2, [r3, #5]
		DMA2_Stream5_Flag.Fifo_Error_Flag = true;
 8001ac2:	4b2d      	ldr	r3, [pc, #180]	@ (8001b78 <DMA2_Stream5_IRQHandler+0xcc>)
 8001ac4:	2201      	movs	r2, #1
 8001ac6:	715a      	strb	r2, [r3, #5]
		DMA2 -> HIFCR |= DMA_HIFCR_CFEIF5;
 8001ac8:	4b29      	ldr	r3, [pc, #164]	@ (8001b70 <DMA2_Stream5_IRQHandler+0xc4>)
 8001aca:	68db      	ldr	r3, [r3, #12]
 8001acc:	4a28      	ldr	r2, [pc, #160]	@ (8001b70 <DMA2_Stream5_IRQHandler+0xc4>)
 8001ace:	f043 0340 	orr.w	r3, r3, #64	@ 0x40
 8001ad2:	60d3      	str	r3, [r2, #12]
	}
	/************************************************************************************************************/
	if(DMA2 -> HISR & DMA_HISR_DMEIF5)
 8001ad4:	4b26      	ldr	r3, [pc, #152]	@ (8001b70 <DMA2_Stream5_IRQHandler+0xc4>)
 8001ad6:	685b      	ldr	r3, [r3, #4]
 8001ad8:	f403 7380 	and.w	r3, r3, #256	@ 0x100
 8001adc:	2b00      	cmp	r3, #0
 8001ade:	d00b      	beq.n	8001af8 <DMA2_Stream5_IRQHandler+0x4c>
	{
		TIM1_UP_DMA_Flag.Direct_Mode_Error_Flag = true;
 8001ae0:	4b24      	ldr	r3, [pc, #144]	@ (8001b74 <DMA2_Stream5_IRQHandler+0xc8>)
 8001ae2:	2201      	movs	r2, #1
 8001ae4:	711a      	strb	r2, [r3, #4]
		DMA2_Stream5_Flag.Direct_Mode_Error_Flag = true;
 8001ae6:	4b24      	ldr	r3, [pc, #144]	@ (8001b78 <DMA2_Stream5_IRQHandler+0xcc>)
 8001ae8:	2201      	movs	r2, #1
 8001aea:	711a      	strb	r2, [r3, #4]
		DMA2 -> HIFCR |= DMA_HIFCR_CDMEIF5;
 8001aec:	4b20      	ldr	r3, [pc, #128]	@ (8001b70 <DMA2_Stream5_IRQHandler+0xc4>)
 8001aee:	68db      	ldr	r3, [r3, #12]
 8001af0:	4a1f      	ldr	r2, [pc, #124]	@ (8001b70 <DMA2_Stream5_IRQHandler+0xc4>)
 8001af2:	f443 7380 	orr.w	r3, r3, #256	@ 0x100
 8001af6:	60d3      	str	r3, [r2, #12]
	}
	/************************************************************************************************************/
	if(DMA2 -> HISR & DMA_HISR_TEIF5)
 8001af8:	4b1d      	ldr	r3, [pc, #116]	@ (8001b70 <DMA2_Stream5_IRQHandler+0xc4>)
 8001afa:	685b      	ldr	r3, [r3, #4]
 8001afc:	f403 7300 	and.w	r3, r3, #512	@ 0x200
 8001b00:	2b00      	cmp	r3, #0
 8001b02:	d00b      	beq.n	8001b1c <DMA2_Stream5_IRQHandler+0x70>
	{
		TIM1_UP_DMA_Flag.Transfer_Error_Flag = true;
 8001b04:	4b1b      	ldr	r3, [pc, #108]	@ (8001b74 <DMA2_Stream5_IRQHandler+0xc8>)
 8001b06:	2201      	movs	r2, #1
 8001b08:	70da      	strb	r2, [r3, #3]
		DMA2_Stream5_Flag.Transfer_Error_Flag = true;
 8001b0a:	4b1b      	ldr	r3, [pc, #108]	@ (8001b78 <DMA2_Stream5_IRQHandler+0xcc>)
 8001b0c:	2201      	movs	r2, #1
 8001b0e:	70da      	strb	r2, [r3, #3]
		DMA2 -> HIFCR |= DMA_HIFCR_CTEIF5;
 8001b10:	4b17      	ldr	r3, [pc, #92]	@ (8001b70 <DMA2_Stream5_IRQHandler+0xc4>)
 8001b12:	68db      	ldr	r3, [r3, #12]
 8001b14:	4a16      	ldr	r2, [pc, #88]	@ (8001b70 <DMA2_Stream5_IRQHandler+0xc4>)
 8001b16:	f443 7300 	orr.w	r3, r3, #512	@ 0x200
 8001b1a:	60d3      	str	r3, [r2, #12]
	}
	/************************************************************************************************************/
	if(DMA2 -> HISR & DMA_HISR_HTIF5)
 8001b1c:	4b14      	ldr	r3, [pc, #80]	@ (8001b70 <DMA2_Stream5_IRQHandler+0xc4>)
 8001b1e:	685b      	ldr	r3, [r3, #4]
 8001b20:	f403 6380 	and.w	r3, r3, #1024	@ 0x400
 8001b24:	2b00      	cmp	r3, #0
 8001b26:	d00b      	beq.n	8001b40 <DMA2_Stream5_IRQHandler+0x94>
	{
		TIM1_UP_DMA_Flag.Half_Transfer_Complete_Flag = true;
 8001b28:	4b12      	ldr	r3, [pc, #72]	@ (8001b74 <DMA2_Stream5_IRQHandler+0xc8>)
 8001b2a:	2201      	movs	r2, #1
 8001b2c:	709a      	strb	r2, [r3, #2]
		DMA2_Stream5_Flag.Half_Transfer_Complete_Flag = true;
 8001b2e:	4b12      	ldr	r3, [pc, #72]	@ (8001b78 <DMA2_Stream5_IRQHandler+0xcc>)
 8001b30:	2201      	movs	r2, #1
 8001b32:	709a      	strb	r2, [r3, #2]
		DMA2 -> HIFCR |= DMA_HIFCR_CHTIF5;
 8001b34:	4b0e      	ldr	r3, [pc, #56]	@ (8001b70 <DMA2_Stream5_IRQHandler+0xc4>)
 8001b36:	68db      	ldr	r3, [r3, #12]
 8001b38:	4a0d      	ldr	r2, [pc, #52]	@ (8001b70 <DMA2_Stream5_IRQHandler+0xc4>)
 8001b3a:	f443 6380 	orr.w	r3, r3, #1024	@ 0x400
 8001b3e:	60d3      	str	r3, [r2, #12]
	}
	/************************************************************************************************************/
	if(DMA2 -> HISR & DMA_HISR_TCIF5)
 8001b40:	4b0b      	ldr	r3, [pc, #44]	@ (8001b70 <DMA2_Stream5_IRQHandler+0xc4>)
 8001b42:	685b      	ldr	r3, [r3, #4]
 8001b44:	f403 6300 	and.w	r3, r3, #2048	@ 0x800
 8001b48:	2b00      	cmp	r3, #0
 8001b4a:	d00b      	beq.n	8001b64 <DMA2_Stream5_IRQHandler+0xb8>
	{
		TIM1_UP_DMA_Flag.Transfer_Complete_Flag = true;
 8001b4c:	4b09      	ldr	r3, [pc, #36]	@ (8001b74 <DMA2_Stream5_IRQHandler+0xc8>)
 8001b4e:	2201      	movs	r2, #1
 8001b50:	705a      	strb	r2, [r3, #1]
		DMA2_Stream5_Flag.Transfer_Complete_Flag = true;
 8001b52:	4b09      	ldr	r3, [pc, #36]	@ (8001b78 <DMA2_Stream5_IRQHandler+0xcc>)
 8001b54:	2201      	movs	r2, #1
 8001b56:	705a      	strb	r2, [r3, #1]
		DMA2 -> HIFCR |= DMA_HIFCR_CTCIF5;
 8001b58:	4b05      	ldr	r3, [pc, #20]	@ (8001b70 <DMA2_Stream5_IRQHandler+0xc4>)
 8001b5a:	68db      	ldr	r3, [r3, #12]
 8001b5c:	4a04      	ldr	r2, [pc, #16]	@ (8001b70 <DMA2_Stream5_IRQHandler+0xc4>)
 8001b5e:	f443 6300 	orr.w	r3, r3, #2048	@ 0x800
 8001b62:	60d3      	str	r3, [r2, #12]
	}
}
 8001b64:	bf00      	nop
 8001b66:	46bd      	mov	sp, r7
 8001b68:	f85d 7b04 	ldr.w	r7, [sp], #4
 8001b6c:	4770      	bx	lr
 8001b6e:	bf00      	nop
 8001b70:	40026400 	.word	0x40026400
 8001b74:	200000f0 	.word	0x200000f0
 8001b78:	20000278 	.word	0x20000278

08001b7c <DMA2_Stream6_IRQHandler>:
 * transfer error, half transfer complete, and transfer complete. For each
 * event, it sets the corresponding flag in the `DMA2_Stream6_Flag` structure
 * and clears the respective interrupt flag in the DMA interrupt flag clear register.
 */
void DMA2_Stream6_IRQHandler(void)
{
 8001b7c:	b480      	push	{r7}
 8001b7e:	af00      	add	r7, sp, #0
	if(DMA2 -> HISR & DMA_HISR_FEIF6)
 8001b80:	4b45      	ldr	r3, [pc, #276]	@ (8001c98 <DMA2_Stream6_IRQHandler+0x11c>)
 8001b82:	685b      	ldr	r3, [r3, #4]
 8001b84:	f403 3380 	and.w	r3, r3, #65536	@ 0x10000
 8001b88:	2b00      	cmp	r3, #0
 8001b8a:	d014      	beq.n	8001bb6 <DMA2_Stream6_IRQHandler+0x3a>
	{
		TIM1_CH2_DMA_Flag.Fifo_Error_Flag = true;
 8001b8c:	4b43      	ldr	r3, [pc, #268]	@ (8001c9c <DMA2_Stream6_IRQHandler+0x120>)
 8001b8e:	2201      	movs	r2, #1
 8001b90:	715a      	strb	r2, [r3, #5]
		TIM1_CH3_DMA_Flag.Fifo_Error_Flag = true;
 8001b92:	4b43      	ldr	r3, [pc, #268]	@ (8001ca0 <DMA2_Stream6_IRQHandler+0x124>)
 8001b94:	2201      	movs	r2, #1
 8001b96:	715a      	strb	r2, [r3, #5]
		TIM8_CH3_DMA_Flag.Fifo_Error_Flag = true;
 8001b98:	4b42      	ldr	r3, [pc, #264]	@ (8001ca4 <DMA2_Stream6_IRQHandler+0x128>)
 8001b9a:	2201      	movs	r2, #1
 8001b9c:	715a      	strb	r2, [r3, #5]
		USART6_TX_DMA_Flag.Fifo_Error_Flag = true;
 8001b9e:	4b42      	ldr	r3, [pc, #264]	@ (8001ca8 <DMA2_Stream6_IRQHandler+0x12c>)
 8001ba0:	2201      	movs	r2, #1
 8001ba2:	715a      	strb	r2, [r3, #5]
		DMA2_Stream6_Flag.Fifo_Error_Flag = true;
 8001ba4:	4b41      	ldr	r3, [pc, #260]	@ (8001cac <DMA2_Stream6_IRQHandler+0x130>)
 8001ba6:	2201      	movs	r2, #1
 8001ba8:	715a      	strb	r2, [r3, #5]
		DMA2 -> HIFCR |= DMA_HIFCR_CFEIF6;
 8001baa:	4b3b      	ldr	r3, [pc, #236]	@ (8001c98 <DMA2_Stream6_IRQHandler+0x11c>)
 8001bac:	68db      	ldr	r3, [r3, #12]
 8001bae:	4a3a      	ldr	r2, [pc, #232]	@ (8001c98 <DMA2_Stream6_IRQHandler+0x11c>)
 8001bb0:	f443 3380 	orr.w	r3, r3, #65536	@ 0x10000
 8001bb4:	60d3      	str	r3, [r2, #12]
	}
	/************************************************************************************************************/
	if(DMA2 -> HISR & DMA_HISR_DMEIF6)
 8001bb6:	4b38      	ldr	r3, [pc, #224]	@ (8001c98 <DMA2_Stream6_IRQHandler+0x11c>)
 8001bb8:	685b      	ldr	r3, [r3, #4]
 8001bba:	f403 2380 	and.w	r3, r3, #262144	@ 0x40000
 8001bbe:	2b00      	cmp	r3, #0
 8001bc0:	d014      	beq.n	8001bec <DMA2_Stream6_IRQHandler+0x70>
	{
		TIM1_CH2_DMA_Flag.Direct_Mode_Error_Flag= true;
 8001bc2:	4b36      	ldr	r3, [pc, #216]	@ (8001c9c <DMA2_Stream6_IRQHandler+0x120>)
 8001bc4:	2201      	movs	r2, #1
 8001bc6:	711a      	strb	r2, [r3, #4]
		TIM1_CH3_DMA_Flag.Direct_Mode_Error_Flag = true;
 8001bc8:	4b35      	ldr	r3, [pc, #212]	@ (8001ca0 <DMA2_Stream6_IRQHandler+0x124>)
 8001bca:	2201      	movs	r2, #1
 8001bcc:	711a      	strb	r2, [r3, #4]
		TIM8_CH3_DMA_Flag.Direct_Mode_Error_Flag = true;
 8001bce:	4b35      	ldr	r3, [pc, #212]	@ (8001ca4 <DMA2_Stream6_IRQHandler+0x128>)
 8001bd0:	2201      	movs	r2, #1
 8001bd2:	711a      	strb	r2, [r3, #4]
		USART6_TX_DMA_Flag.Direct_Mode_Error_Flag = true;
 8001bd4:	4b34      	ldr	r3, [pc, #208]	@ (8001ca8 <DMA2_Stream6_IRQHandler+0x12c>)
 8001bd6:	2201      	movs	r2, #1
 8001bd8:	711a      	strb	r2, [r3, #4]
		DMA2_Stream6_Flag.Direct_Mode_Error_Flag = true;
 8001bda:	4b34      	ldr	r3, [pc, #208]	@ (8001cac <DMA2_Stream6_IRQHandler+0x130>)
 8001bdc:	2201      	movs	r2, #1
 8001bde:	711a      	strb	r2, [r3, #4]
		DMA2 -> HIFCR |= DMA_HIFCR_CDMEIF6;
 8001be0:	4b2d      	ldr	r3, [pc, #180]	@ (8001c98 <DMA2_Stream6_IRQHandler+0x11c>)
 8001be2:	68db      	ldr	r3, [r3, #12]
 8001be4:	4a2c      	ldr	r2, [pc, #176]	@ (8001c98 <DMA2_Stream6_IRQHandler+0x11c>)
 8001be6:	f443 2380 	orr.w	r3, r3, #262144	@ 0x40000
 8001bea:	60d3      	str	r3, [r2, #12]
	}
	/************************************************************************************************************/
	if(DMA2 -> HISR & DMA_HISR_TEIF6)
 8001bec:	4b2a      	ldr	r3, [pc, #168]	@ (8001c98 <DMA2_Stream6_IRQHandler+0x11c>)
 8001bee:	685b      	ldr	r3, [r3, #4]
 8001bf0:	f403 2300 	and.w	r3, r3, #524288	@ 0x80000
 8001bf4:	2b00      	cmp	r3, #0
 8001bf6:	d014      	beq.n	8001c22 <DMA2_Stream6_IRQHandler+0xa6>
	{
		TIM1_CH2_DMA_Flag.Transfer_Error_Flag = true;
 8001bf8:	4b28      	ldr	r3, [pc, #160]	@ (8001c9c <DMA2_Stream6_IRQHandler+0x120>)
 8001bfa:	2201      	movs	r2, #1
 8001bfc:	70da      	strb	r2, [r3, #3]
		TIM1_CH3_DMA_Flag.Transfer_Error_Flag = true;
 8001bfe:	4b28      	ldr	r3, [pc, #160]	@ (8001ca0 <DMA2_Stream6_IRQHandler+0x124>)
 8001c00:	2201      	movs	r2, #1
 8001c02:	70da      	strb	r2, [r3, #3]
		TIM8_CH3_DMA_Flag.Transfer_Error_Flag = true;
 8001c04:	4b27      	ldr	r3, [pc, #156]	@ (8001ca4 <DMA2_Stream6_IRQHandler+0x128>)
 8001c06:	2201      	movs	r2, #1
 8001c08:	70da      	strb	r2, [r3, #3]
		USART6_TX_DMA_Flag.Transfer_Error_Flag = true;
 8001c0a:	4b27      	ldr	r3, [pc, #156]	@ (8001ca8 <DMA2_Stream6_IRQHandler+0x12c>)
 8001c0c:	2201      	movs	r2, #1
 8001c0e:	70da      	strb	r2, [r3, #3]
		DMA2_Stream6_Flag.Transfer_Error_Flag = true;
 8001c10:	4b26      	ldr	r3, [pc, #152]	@ (8001cac <DMA2_Stream6_IRQHandler+0x130>)
 8001c12:	2201      	movs	r2, #1
 8001c14:	70da      	strb	r2, [r3, #3]
		DMA2 -> HIFCR |= DMA_HIFCR_CTEIF6;
 8001c16:	4b20      	ldr	r3, [pc, #128]	@ (8001c98 <DMA2_Stream6_IRQHandler+0x11c>)
 8001c18:	68db      	ldr	r3, [r3, #12]
 8001c1a:	4a1f      	ldr	r2, [pc, #124]	@ (8001c98 <DMA2_Stream6_IRQHandler+0x11c>)
 8001c1c:	f443 2300 	orr.w	r3, r3, #524288	@ 0x80000
 8001c20:	60d3      	str	r3, [r2, #12]
	}
	/************************************************************************************************************/
	if(DMA2 -> HISR & DMA_HISR_HTIF6)
 8001c22:	4b1d      	ldr	r3, [pc, #116]	@ (8001c98 <DMA2_Stream6_IRQHandler+0x11c>)
 8001c24:	685b      	ldr	r3, [r3, #4]
 8001c26:	f403 1380 	and.w	r3, r3, #1048576	@ 0x100000
 8001c2a:	2b00      	cmp	r3, #0
 8001c2c:	d014      	beq.n	8001c58 <DMA2_Stream6_IRQHandler+0xdc>
	{
		TIM1_CH2_DMA_Flag.Half_Transfer_Complete_Flag = true;
 8001c2e:	4b1b      	ldr	r3, [pc, #108]	@ (8001c9c <DMA2_Stream6_IRQHandler+0x120>)
 8001c30:	2201      	movs	r2, #1
 8001c32:	709a      	strb	r2, [r3, #2]
		TIM1_CH3_DMA_Flag.Half_Transfer_Complete_Flag = true;
 8001c34:	4b1a      	ldr	r3, [pc, #104]	@ (8001ca0 <DMA2_Stream6_IRQHandler+0x124>)
 8001c36:	2201      	movs	r2, #1
 8001c38:	709a      	strb	r2, [r3, #2]
		TIM8_CH3_DMA_Flag.Half_Transfer_Complete_Flag = true;
 8001c3a:	4b1a      	ldr	r3, [pc, #104]	@ (8001ca4 <DMA2_Stream6_IRQHandler+0x128>)
 8001c3c:	2201      	movs	r2, #1
 8001c3e:	709a      	strb	r2, [r3, #2]
		USART6_TX_DMA_Flag.Half_Transfer_Complete_Flag = true;
 8001c40:	4b19      	ldr	r3, [pc, #100]	@ (8001ca8 <DMA2_Stream6_IRQHandler+0x12c>)
 8001c42:	2201      	movs	r2, #1
 8001c44:	709a      	strb	r2, [r3, #2]
		DMA2_Stream6_Flag.Half_Transfer_Complete_Flag = true;
 8001c46:	4b19      	ldr	r3, [pc, #100]	@ (8001cac <DMA2_Stream6_IRQHandler+0x130>)
 8001c48:	2201      	movs	r2, #1
 8001c4a:	709a      	strb	r2, [r3, #2]
		DMA2 -> HIFCR |= DMA_HIFCR_CHTIF6;
 8001c4c:	4b12      	ldr	r3, [pc, #72]	@ (8001c98 <DMA2_Stream6_IRQHandler+0x11c>)
 8001c4e:	68db      	ldr	r3, [r3, #12]
 8001c50:	4a11      	ldr	r2, [pc, #68]	@ (8001c98 <DMA2_Stream6_IRQHandler+0x11c>)
 8001c52:	f443 1380 	orr.w	r3, r3, #1048576	@ 0x100000
 8001c56:	60d3      	str	r3, [r2, #12]
	}
	/************************************************************************************************************/
	if(DMA2 -> HISR & DMA_HISR_TCIF6)
 8001c58:	4b0f      	ldr	r3, [pc, #60]	@ (8001c98 <DMA2_Stream6_IRQHandler+0x11c>)
 8001c5a:	685b      	ldr	r3, [r3, #4]
 8001c5c:	f403 1300 	and.w	r3, r3, #2097152	@ 0x200000
 8001c60:	2b00      	cmp	r3, #0
 8001c62:	d014      	beq.n	8001c8e <DMA2_Stream6_IRQHandler+0x112>
	{
		TIM1_CH2_DMA_Flag.Transfer_Complete_Flag = true;
 8001c64:	4b0d      	ldr	r3, [pc, #52]	@ (8001c9c <DMA2_Stream6_IRQHandler+0x120>)
 8001c66:	2201      	movs	r2, #1
 8001c68:	705a      	strb	r2, [r3, #1]
		TIM1_CH3_DMA_Flag.Transfer_Complete_Flag = true;
 8001c6a:	4b0d      	ldr	r3, [pc, #52]	@ (8001ca0 <DMA2_Stream6_IRQHandler+0x124>)
 8001c6c:	2201      	movs	r2, #1
 8001c6e:	705a      	strb	r2, [r3, #1]
		TIM8_CH3_DMA_Flag.Transfer_Complete_Flag = true;
 8001c70:	4b0c      	ldr	r3, [pc, #48]	@ (8001ca4 <DMA2_Stream6_IRQHandler+0x128>)
 8001c72:	2201      	movs	r2, #1
 8001c74:	705a      	strb	r2, [r3, #1]
		USART6_TX_DMA_Flag.Transfer_Complete_Flag = true;
 8001c76:	4b0c      	ldr	r3, [pc, #48]	@ (8001ca8 <DMA2_Stream6_IRQHandler+0x12c>)
 8001c78:	2201      	movs	r2, #1
 8001c7a:	705a      	strb	r2, [r3, #1]
		DMA2_Stream6_Flag.Transfer_Complete_Flag = true;
 8001c7c:	4b0b      	ldr	r3, [pc, #44]	@ (8001cac <DMA2_Stream6_IRQHandler+0x130>)
 8001c7e:	2201      	movs	r2, #1
 8001c80:	705a      	strb	r2, [r3, #1]
		DMA2 -> HIFCR |= DMA_HIFCR_CTCIF6;
 8001c82:	4b05      	ldr	r3, [pc, #20]	@ (8001c98 <DMA2_Stream6_IRQHandler+0x11c>)
 8001c84:	68db      	ldr	r3, [r3, #12]
 8001c86:	4a04      	ldr	r2, [pc, #16]	@ (8001c98 <DMA2_Stream6_IRQHandler+0x11c>)
 8001c88:	f443 1300 	orr.w	r3, r3, #2097152	@ 0x200000
 8001c8c:	60d3      	str	r3, [r2, #12]
	}
}
 8001c8e:	bf00      	nop
 8001c90:	46bd      	mov	sp, r7
 8001c92:	f85d 7b04 	ldr.w	r7, [sp], #4
 8001c96:	4770      	bx	lr
 8001c98:	40026400 	.word	0x40026400
 8001c9c:	20000100 	.word	0x20000100
 8001ca0:	20000108 	.word	0x20000108
 8001ca4:	20000140 	.word	0x20000140
 8001ca8:	200000d8 	.word	0x200000d8
 8001cac:	20000280 	.word	0x20000280

08001cb0 <DMA2_Stream7_IRQHandler>:
 * transfer error, half transfer complete, and transfer complete. For each
 * event, it sets the corresponding flag in the `DMA2_Stream7_Flag` structure
 * and clears the respective interrupt flag in the DMA interrupt flag clear register.
 */
void DMA2_Stream7_IRQHandler(void)
{
 8001cb0:	b480      	push	{r7}
 8001cb2:	af00      	add	r7, sp, #0
	if(DMA2 -> HISR & DMA_HISR_FEIF7)
 8001cb4:	4b3e      	ldr	r3, [pc, #248]	@ (8001db0 <DMA2_Stream7_IRQHandler+0x100>)
 8001cb6:	685b      	ldr	r3, [r3, #4]
 8001cb8:	f403 0380 	and.w	r3, r3, #4194304	@ 0x400000
 8001cbc:	2b00      	cmp	r3, #0
 8001cbe:	d011      	beq.n	8001ce4 <DMA2_Stream7_IRQHandler+0x34>
	{
		USART1_TX_DMA_Flag.Triggered = true;
 8001cc0:	4b3c      	ldr	r3, [pc, #240]	@ (8001db4 <DMA2_Stream7_IRQHandler+0x104>)
 8001cc2:	2201      	movs	r2, #1
 8001cc4:	701a      	strb	r2, [r3, #0]
		DMA2 -> HIFCR |= DMA_HIFCR_CFEIF7;
 8001cc6:	4b3a      	ldr	r3, [pc, #232]	@ (8001db0 <DMA2_Stream7_IRQHandler+0x100>)
 8001cc8:	68db      	ldr	r3, [r3, #12]
 8001cca:	4a39      	ldr	r2, [pc, #228]	@ (8001db0 <DMA2_Stream7_IRQHandler+0x100>)
 8001ccc:	f443 0380 	orr.w	r3, r3, #4194304	@ 0x400000
 8001cd0:	60d3      	str	r3, [r2, #12]
		TIM8_CH4_DMA_Flag.Fifo_Error_Flag = true;
 8001cd2:	4b39      	ldr	r3, [pc, #228]	@ (8001db8 <DMA2_Stream7_IRQHandler+0x108>)
 8001cd4:	2201      	movs	r2, #1
 8001cd6:	715a      	strb	r2, [r3, #5]
		USART1_TX_DMA_Flag.Fifo_Error_Flag = true;
 8001cd8:	4b36      	ldr	r3, [pc, #216]	@ (8001db4 <DMA2_Stream7_IRQHandler+0x104>)
 8001cda:	2201      	movs	r2, #1
 8001cdc:	715a      	strb	r2, [r3, #5]
		DMA2_Stream7_Flag.Fifo_Error_Flag = true;
 8001cde:	4b37      	ldr	r3, [pc, #220]	@ (8001dbc <DMA2_Stream7_IRQHandler+0x10c>)
 8001ce0:	2201      	movs	r2, #1
 8001ce2:	715a      	strb	r2, [r3, #5]

	}
	/************************************************************************************************************/
	if(DMA2 -> HISR & DMA_HISR_DMEIF7)
 8001ce4:	4b32      	ldr	r3, [pc, #200]	@ (8001db0 <DMA2_Stream7_IRQHandler+0x100>)
 8001ce6:	685b      	ldr	r3, [r3, #4]
 8001ce8:	f003 7380 	and.w	r3, r3, #16777216	@ 0x1000000
 8001cec:	2b00      	cmp	r3, #0
 8001cee:	d011      	beq.n	8001d14 <DMA2_Stream7_IRQHandler+0x64>
	{
		USART1_TX_DMA_Flag.Triggered = true;
 8001cf0:	4b30      	ldr	r3, [pc, #192]	@ (8001db4 <DMA2_Stream7_IRQHandler+0x104>)
 8001cf2:	2201      	movs	r2, #1
 8001cf4:	701a      	strb	r2, [r3, #0]
		DMA2 -> HIFCR |= DMA_HIFCR_CDMEIF7;
 8001cf6:	4b2e      	ldr	r3, [pc, #184]	@ (8001db0 <DMA2_Stream7_IRQHandler+0x100>)
 8001cf8:	68db      	ldr	r3, [r3, #12]
 8001cfa:	4a2d      	ldr	r2, [pc, #180]	@ (8001db0 <DMA2_Stream7_IRQHandler+0x100>)
 8001cfc:	f043 7380 	orr.w	r3, r3, #16777216	@ 0x1000000
 8001d00:	60d3      	str	r3, [r2, #12]
		TIM8_CH4_DMA_Flag.Direct_Mode_Error_Flag = true;
 8001d02:	4b2d      	ldr	r3, [pc, #180]	@ (8001db8 <DMA2_Stream7_IRQHandler+0x108>)
 8001d04:	2201      	movs	r2, #1
 8001d06:	711a      	strb	r2, [r3, #4]
		USART1_TX_DMA_Flag.Direct_Mode_Error_Flag = true;
 8001d08:	4b2a      	ldr	r3, [pc, #168]	@ (8001db4 <DMA2_Stream7_IRQHandler+0x104>)
 8001d0a:	2201      	movs	r2, #1
 8001d0c:	711a      	strb	r2, [r3, #4]
		DMA2_Stream7_Flag.Direct_Mode_Error_Flag = true;
 8001d0e:	4b2b      	ldr	r3, [pc, #172]	@ (8001dbc <DMA2_Stream7_IRQHandler+0x10c>)
 8001d10:	2201      	movs	r2, #1
 8001d12:	711a      	strb	r2, [r3, #4]

	}
	/************************************************************************************************************/
	if(DMA2 -> HISR & DMA_HISR_TEIF7)
 8001d14:	4b26      	ldr	r3, [pc, #152]	@ (8001db0 <DMA2_Stream7_IRQHandler+0x100>)
 8001d16:	685b      	ldr	r3, [r3, #4]
 8001d18:	f003 7300 	and.w	r3, r3, #33554432	@ 0x2000000
 8001d1c:	2b00      	cmp	r3, #0
 8001d1e:	d011      	beq.n	8001d44 <DMA2_Stream7_IRQHandler+0x94>
	{
		USART1_TX_DMA_Flag.Triggered = true;
 8001d20:	4b24      	ldr	r3, [pc, #144]	@ (8001db4 <DMA2_Stream7_IRQHandler+0x104>)
 8001d22:	2201      	movs	r2, #1
 8001d24:	701a      	strb	r2, [r3, #0]
		DMA2 -> HIFCR |= DMA_HIFCR_CTEIF7;
 8001d26:	4b22      	ldr	r3, [pc, #136]	@ (8001db0 <DMA2_Stream7_IRQHandler+0x100>)
 8001d28:	68db      	ldr	r3, [r3, #12]
 8001d2a:	4a21      	ldr	r2, [pc, #132]	@ (8001db0 <DMA2_Stream7_IRQHandler+0x100>)
 8001d2c:	f043 7300 	orr.w	r3, r3, #33554432	@ 0x2000000
 8001d30:	60d3      	str	r3, [r2, #12]
		TIM8_CH4_DMA_Flag.Transfer_Error_Flag = true;
 8001d32:	4b21      	ldr	r3, [pc, #132]	@ (8001db8 <DMA2_Stream7_IRQHandler+0x108>)
 8001d34:	2201      	movs	r2, #1
 8001d36:	70da      	strb	r2, [r3, #3]
		USART1_TX_DMA_Flag.Transfer_Error_Flag = true;
 8001d38:	4b1e      	ldr	r3, [pc, #120]	@ (8001db4 <DMA2_Stream7_IRQHandler+0x104>)
 8001d3a:	2201      	movs	r2, #1
 8001d3c:	70da      	strb	r2, [r3, #3]
		DMA2_Stream7_Flag.Transfer_Error_Flag = true;
 8001d3e:	4b1f      	ldr	r3, [pc, #124]	@ (8001dbc <DMA2_Stream7_IRQHandler+0x10c>)
 8001d40:	2201      	movs	r2, #1
 8001d42:	70da      	strb	r2, [r3, #3]

	}
	/************************************************************************************************************/
	if(DMA2 -> HISR & DMA_HISR_HTIF7)
 8001d44:	4b1a      	ldr	r3, [pc, #104]	@ (8001db0 <DMA2_Stream7_IRQHandler+0x100>)
 8001d46:	685b      	ldr	r3, [r3, #4]
 8001d48:	f003 6380 	and.w	r3, r3, #67108864	@ 0x4000000
 8001d4c:	2b00      	cmp	r3, #0
 8001d4e:	d011      	beq.n	8001d74 <DMA2_Stream7_IRQHandler+0xc4>
	{
		USART1_TX_DMA_Flag.Triggered = true;
 8001d50:	4b18      	ldr	r3, [pc, #96]	@ (8001db4 <DMA2_Stream7_IRQHandler+0x104>)
 8001d52:	2201      	movs	r2, #1
 8001d54:	701a      	strb	r2, [r3, #0]
		DMA2 -> HIFCR |= DMA_HIFCR_CHTIF7;
 8001d56:	4b16      	ldr	r3, [pc, #88]	@ (8001db0 <DMA2_Stream7_IRQHandler+0x100>)
 8001d58:	68db      	ldr	r3, [r3, #12]
 8001d5a:	4a15      	ldr	r2, [pc, #84]	@ (8001db0 <DMA2_Stream7_IRQHandler+0x100>)
 8001d5c:	f043 6380 	orr.w	r3, r3, #67108864	@ 0x4000000
 8001d60:	60d3      	str	r3, [r2, #12]
		TIM8_CH4_DMA_Flag.Half_Transfer_Complete_Flag = true;
 8001d62:	4b15      	ldr	r3, [pc, #84]	@ (8001db8 <DMA2_Stream7_IRQHandler+0x108>)
 8001d64:	2201      	movs	r2, #1
 8001d66:	709a      	strb	r2, [r3, #2]
		USART1_TX_DMA_Flag.Half_Transfer_Complete_Flag = true;
 8001d68:	4b12      	ldr	r3, [pc, #72]	@ (8001db4 <DMA2_Stream7_IRQHandler+0x104>)
 8001d6a:	2201      	movs	r2, #1
 8001d6c:	709a      	strb	r2, [r3, #2]
		DMA2_Stream7_Flag.Half_Transfer_Complete_Flag = true;
 8001d6e:	4b13      	ldr	r3, [pc, #76]	@ (8001dbc <DMA2_Stream7_IRQHandler+0x10c>)
 8001d70:	2201      	movs	r2, #1
 8001d72:	709a      	strb	r2, [r3, #2]

	}
	/************************************************************************************************************/
	if(DMA2 -> HISR & DMA_HISR_TCIF7)
 8001d74:	4b0e      	ldr	r3, [pc, #56]	@ (8001db0 <DMA2_Stream7_IRQHandler+0x100>)
 8001d76:	685b      	ldr	r3, [r3, #4]
 8001d78:	f003 6300 	and.w	r3, r3, #134217728	@ 0x8000000
 8001d7c:	2b00      	cmp	r3, #0
 8001d7e:	d011      	beq.n	8001da4 <DMA2_Stream7_IRQHandler+0xf4>
	{
		USART1_TX_DMA_Flag.Triggered = true;
 8001d80:	4b0c      	ldr	r3, [pc, #48]	@ (8001db4 <DMA2_Stream7_IRQHandler+0x104>)
 8001d82:	2201      	movs	r2, #1
 8001d84:	701a      	strb	r2, [r3, #0]
		DMA2 -> HIFCR |= DMA_HIFCR_CTCIF7;
 8001d86:	4b0a      	ldr	r3, [pc, #40]	@ (8001db0 <DMA2_Stream7_IRQHandler+0x100>)
 8001d88:	68db      	ldr	r3, [r3, #12]
 8001d8a:	4a09      	ldr	r2, [pc, #36]	@ (8001db0 <DMA2_Stream7_IRQHandler+0x100>)
 8001d8c:	f043 6300 	orr.w	r3, r3, #134217728	@ 0x8000000
 8001d90:	60d3      	str	r3, [r2, #12]
		TIM8_CH4_DMA_Flag.Transfer_Complete_Flag = true;
 8001d92:	4b09      	ldr	r3, [pc, #36]	@ (8001db8 <DMA2_Stream7_IRQHandler+0x108>)
 8001d94:	2201      	movs	r2, #1
 8001d96:	705a      	strb	r2, [r3, #1]
		USART1_TX_DMA_Flag.Transfer_Complete_Flag = true;
 8001d98:	4b06      	ldr	r3, [pc, #24]	@ (8001db4 <DMA2_Stream7_IRQHandler+0x104>)
 8001d9a:	2201      	movs	r2, #1
 8001d9c:	705a      	strb	r2, [r3, #1]
		DMA2_Stream7_Flag.Transfer_Complete_Flag = true;
 8001d9e:	4b07      	ldr	r3, [pc, #28]	@ (8001dbc <DMA2_Stream7_IRQHandler+0x10c>)
 8001da0:	2201      	movs	r2, #1
 8001da2:	705a      	strb	r2, [r3, #1]

	}
}
 8001da4:	bf00      	nop
 8001da6:	46bd      	mov	sp, r7
 8001da8:	f85d 7b04 	ldr.w	r7, [sp], #4
 8001dac:	4770      	bx	lr
 8001dae:	bf00      	nop
 8001db0:	40026400 	.word	0x40026400
 8001db4:	20000090 	.word	0x20000090
 8001db8:	20000148 	.word	0x20000148
 8001dbc:	20000288 	.word	0x20000288

08001dc0 <DMA_Clock_Enable>:
 * the RCC AHB1 peripheral clock enable register.
 *
 * @param[in] config Pointer to the `DMA_Config` structure that contains the DMA controller configuration.
 */
void DMA_Clock_Enable(DMA_Config *config)
{
 8001dc0:	b480      	push	{r7}
 8001dc2:	b083      	sub	sp, #12
 8001dc4:	af00      	add	r7, sp, #0
 8001dc6:	6078      	str	r0, [r7, #4]
	if(config -> Request.Controller == DMA1){
 8001dc8:	687b      	ldr	r3, [r7, #4]
 8001dca:	681b      	ldr	r3, [r3, #0]
 8001dcc:	4a0c      	ldr	r2, [pc, #48]	@ (8001e00 <DMA_Clock_Enable+0x40>)
 8001dce:	4293      	cmp	r3, r2
 8001dd0:	d105      	bne.n	8001dde <DMA_Clock_Enable+0x1e>
		RCC -> AHB1ENR |= RCC_AHB1ENR_DMA1EN;
 8001dd2:	4b0c      	ldr	r3, [pc, #48]	@ (8001e04 <DMA_Clock_Enable+0x44>)
 8001dd4:	6b1b      	ldr	r3, [r3, #48]	@ 0x30
 8001dd6:	4a0b      	ldr	r2, [pc, #44]	@ (8001e04 <DMA_Clock_Enable+0x44>)
 8001dd8:	f443 1300 	orr.w	r3, r3, #2097152	@ 0x200000
 8001ddc:	6313      	str	r3, [r2, #48]	@ 0x30
	}
	if(config -> Request.Controller == DMA2)
 8001dde:	687b      	ldr	r3, [r7, #4]
 8001de0:	681b      	ldr	r3, [r3, #0]
 8001de2:	4a09      	ldr	r2, [pc, #36]	@ (8001e08 <DMA_Clock_Enable+0x48>)
 8001de4:	4293      	cmp	r3, r2
 8001de6:	d105      	bne.n	8001df4 <DMA_Clock_Enable+0x34>
		{
		RCC -> AHB1ENR |= RCC_AHB1ENR_DMA2EN;
 8001de8:	4b06      	ldr	r3, [pc, #24]	@ (8001e04 <DMA_Clock_Enable+0x44>)
 8001dea:	6b1b      	ldr	r3, [r3, #48]	@ 0x30
 8001dec:	4a05      	ldr	r2, [pc, #20]	@ (8001e04 <DMA_Clock_Enable+0x44>)
 8001dee:	f443 0380 	orr.w	r3, r3, #4194304	@ 0x400000
 8001df2:	6313      	str	r3, [r2, #48]	@ 0x30
		}
}
 8001df4:	bf00      	nop
 8001df6:	370c      	adds	r7, #12
 8001df8:	46bd      	mov	sp, r7
 8001dfa:	f85d 7b04 	ldr.w	r7, [sp], #4
 8001dfe:	4770      	bx	lr
 8001e00:	40026000 	.word	0x40026000
 8001e04:	40023800 	.word	0x40023800
 8001e08:	40026400 	.word	0x40026400

08001e0c <DMA_Init>:
 * @param[in] config Pointer to the `DMA_Config` structure containing the configuration parameters.
 *
 * @return int8_t Returns 1 on successful initialization, or -1 if an error occurs.
 */
int8_t DMA_Init(DMA_Config *config)
{
 8001e0c:	b580      	push	{r7, lr}
 8001e0e:	b082      	sub	sp, #8
 8001e10:	af00      	add	r7, sp, #0
 8001e12:	6078      	str	r0, [r7, #4]
    DMA_Clock_Enable(config);  // Enable the clock for the specified DMA controller
 8001e14:	6878      	ldr	r0, [r7, #4]
 8001e16:	f7ff ffd3 	bl	8001dc0 <DMA_Clock_Enable>
    config->Request.Stream->CR |= config->Request.channel << DMA_SxCR_CHSEL_Pos;  // Set the DMA channel
 8001e1a:	687b      	ldr	r3, [r7, #4]
 8001e1c:	685b      	ldr	r3, [r3, #4]
 8001e1e:	6819      	ldr	r1, [r3, #0]
 8001e20:	687b      	ldr	r3, [r7, #4]
 8001e22:	7a1b      	ldrb	r3, [r3, #8]
 8001e24:	065a      	lsls	r2, r3, #25
 8001e26:	687b      	ldr	r3, [r7, #4]
 8001e28:	685b      	ldr	r3, [r3, #4]
 8001e2a:	430a      	orrs	r2, r1
 8001e2c:	601a      	str	r2, [r3, #0]
    config->Request.Stream->CR |= config->circular_mode;  // Configure circular mode
 8001e2e:	687b      	ldr	r3, [r7, #4]
 8001e30:	685b      	ldr	r3, [r3, #4]
 8001e32:	6819      	ldr	r1, [r3, #0]
 8001e34:	687b      	ldr	r3, [r7, #4]
 8001e36:	699a      	ldr	r2, [r3, #24]
 8001e38:	687b      	ldr	r3, [r7, #4]
 8001e3a:	685b      	ldr	r3, [r3, #4]
 8001e3c:	430a      	orrs	r2, r1
 8001e3e:	601a      	str	r2, [r3, #0]
    config->Request.Stream->CR |= config->flow_control;  // Set flow control
 8001e40:	687b      	ldr	r3, [r7, #4]
 8001e42:	685b      	ldr	r3, [r3, #4]
 8001e44:	6819      	ldr	r1, [r3, #0]
 8001e46:	687b      	ldr	r3, [r7, #4]
 8001e48:	68da      	ldr	r2, [r3, #12]
 8001e4a:	687b      	ldr	r3, [r7, #4]
 8001e4c:	685b      	ldr	r3, [r3, #4]
 8001e4e:	430a      	orrs	r2, r1
 8001e50:	601a      	str	r2, [r3, #0]
    config->Request.Stream->CR |= config->priority_level;  // Set priority level
 8001e52:	687b      	ldr	r3, [r7, #4]
 8001e54:	685b      	ldr	r3, [r3, #4]
 8001e56:	6819      	ldr	r1, [r3, #0]
 8001e58:	687b      	ldr	r3, [r7, #4]
 8001e5a:	695a      	ldr	r2, [r3, #20]
 8001e5c:	687b      	ldr	r3, [r7, #4]
 8001e5e:	685b      	ldr	r3, [r3, #4]
 8001e60:	430a      	orrs	r2, r1
 8001e62:	601a      	str	r2, [r3, #0]
    config->Request.Stream->CR |= config->memory_data_size;  // Set memory data size
 8001e64:	687b      	ldr	r3, [r7, #4]
 8001e66:	685b      	ldr	r3, [r3, #4]
 8001e68:	6819      	ldr	r1, [r3, #0]
 8001e6a:	687b      	ldr	r3, [r7, #4]
 8001e6c:	6a9a      	ldr	r2, [r3, #40]	@ 0x28
 8001e6e:	687b      	ldr	r3, [r7, #4]
 8001e70:	685b      	ldr	r3, [r3, #4]
 8001e72:	430a      	orrs	r2, r1
 8001e74:	601a      	str	r2, [r3, #0]
    config->Request.Stream->CR |= config->peripheral_data_size;  // Set peripheral data size
 8001e76:	687b      	ldr	r3, [r7, #4]
 8001e78:	685b      	ldr	r3, [r3, #4]
 8001e7a:	6819      	ldr	r1, [r3, #0]
 8001e7c:	687b      	ldr	r3, [r7, #4]
 8001e7e:	6a5a      	ldr	r2, [r3, #36]	@ 0x24
 8001e80:	687b      	ldr	r3, [r7, #4]
 8001e82:	685b      	ldr	r3, [r3, #4]
 8001e84:	430a      	orrs	r2, r1
 8001e86:	601a      	str	r2, [r3, #0]
    config->Request.Stream->CR |= config->transfer_direction;  // Set transfer direction
 8001e88:	687b      	ldr	r3, [r7, #4]
 8001e8a:	685b      	ldr	r3, [r3, #4]
 8001e8c:	6819      	ldr	r1, [r3, #0]
 8001e8e:	687b      	ldr	r3, [r7, #4]
 8001e90:	691a      	ldr	r2, [r3, #16]
 8001e92:	687b      	ldr	r3, [r7, #4]
 8001e94:	685b      	ldr	r3, [r3, #4]
 8001e96:	430a      	orrs	r2, r1
 8001e98:	601a      	str	r2, [r3, #0]

    // Configure DMA interrupts if enabled


     if(config->interrupts != DMA_Configuration.DMA_Interrupts.Disable)
 8001e9a:	687b      	ldr	r3, [r7, #4]
 8001e9c:	69db      	ldr	r3, [r3, #28]
 8001e9e:	2200      	movs	r2, #0
 8001ea0:	4293      	cmp	r3, r2
 8001ea2:	f000 80f4 	beq.w	800208e <DMA_Init+0x282>
    {

        if(config->interrupts |= DMA_Configuration.DMA_Interrupts.Fifo_Error)
 8001ea6:	687b      	ldr	r3, [r7, #4]
 8001ea8:	69db      	ldr	r3, [r3, #28]
 8001eaa:	2280      	movs	r2, #128	@ 0x80
 8001eac:	431a      	orrs	r2, r3
 8001eae:	687b      	ldr	r3, [r7, #4]
 8001eb0:	61da      	str	r2, [r3, #28]
 8001eb2:	687b      	ldr	r3, [r7, #4]
 8001eb4:	69db      	ldr	r3, [r3, #28]
 8001eb6:	2b00      	cmp	r3, #0
 8001eb8:	d008      	beq.n	8001ecc <DMA_Init+0xc0>
        {
        	config->Request.Stream->FCR |= config->interrupts;
 8001eba:	687b      	ldr	r3, [r7, #4]
 8001ebc:	685b      	ldr	r3, [r3, #4]
 8001ebe:	6959      	ldr	r1, [r3, #20]
 8001ec0:	687b      	ldr	r3, [r7, #4]
 8001ec2:	69da      	ldr	r2, [r3, #28]
 8001ec4:	687b      	ldr	r3, [r7, #4]
 8001ec6:	685b      	ldr	r3, [r3, #4]
 8001ec8:	430a      	orrs	r2, r1
 8001eca:	615a      	str	r2, [r3, #20]
        }

        if(config->interrupts |= DMA_Configuration.DMA_Interrupts.Transfer_Complete)
 8001ecc:	687b      	ldr	r3, [r7, #4]
 8001ece:	69db      	ldr	r3, [r3, #28]
 8001ed0:	2210      	movs	r2, #16
 8001ed2:	431a      	orrs	r2, r3
 8001ed4:	687b      	ldr	r3, [r7, #4]
 8001ed6:	61da      	str	r2, [r3, #28]
 8001ed8:	687b      	ldr	r3, [r7, #4]
 8001eda:	69db      	ldr	r3, [r3, #28]
 8001edc:	2b00      	cmp	r3, #0
 8001ede:	d007      	beq.n	8001ef0 <DMA_Init+0xe4>
        {
        	config->Request.Stream->CR |= DMA_SxCR_TCIE;
 8001ee0:	687b      	ldr	r3, [r7, #4]
 8001ee2:	685b      	ldr	r3, [r3, #4]
 8001ee4:	681a      	ldr	r2, [r3, #0]
 8001ee6:	687b      	ldr	r3, [r7, #4]
 8001ee8:	685b      	ldr	r3, [r3, #4]
 8001eea:	f042 0210 	orr.w	r2, r2, #16
 8001eee:	601a      	str	r2, [r3, #0]
        }

        if(config->interrupts |= DMA_Configuration.DMA_Interrupts.Half_Transfer_Complete)
 8001ef0:	687b      	ldr	r3, [r7, #4]
 8001ef2:	69db      	ldr	r3, [r3, #28]
 8001ef4:	2208      	movs	r2, #8
 8001ef6:	431a      	orrs	r2, r3
 8001ef8:	687b      	ldr	r3, [r7, #4]
 8001efa:	61da      	str	r2, [r3, #28]
 8001efc:	687b      	ldr	r3, [r7, #4]
 8001efe:	69db      	ldr	r3, [r3, #28]
 8001f00:	2b00      	cmp	r3, #0
 8001f02:	d007      	beq.n	8001f14 <DMA_Init+0x108>
        {
        	config->Request.Stream->CR |= DMA_SxCR_HTIE;
 8001f04:	687b      	ldr	r3, [r7, #4]
 8001f06:	685b      	ldr	r3, [r3, #4]
 8001f08:	681a      	ldr	r2, [r3, #0]
 8001f0a:	687b      	ldr	r3, [r7, #4]
 8001f0c:	685b      	ldr	r3, [r3, #4]
 8001f0e:	f042 0208 	orr.w	r2, r2, #8
 8001f12:	601a      	str	r2, [r3, #0]
        }

        if(config->interrupts |= DMA_Configuration.DMA_Interrupts.Transfer_Error)
 8001f14:	687b      	ldr	r3, [r7, #4]
 8001f16:	69db      	ldr	r3, [r3, #28]
 8001f18:	2204      	movs	r2, #4
 8001f1a:	431a      	orrs	r2, r3
 8001f1c:	687b      	ldr	r3, [r7, #4]
 8001f1e:	61da      	str	r2, [r3, #28]
 8001f20:	687b      	ldr	r3, [r7, #4]
 8001f22:	69db      	ldr	r3, [r3, #28]
 8001f24:	2b00      	cmp	r3, #0
 8001f26:	d007      	beq.n	8001f38 <DMA_Init+0x12c>
        {
        	config->Request.Stream->CR |= DMA_SxCR_TEIE;
 8001f28:	687b      	ldr	r3, [r7, #4]
 8001f2a:	685b      	ldr	r3, [r3, #4]
 8001f2c:	681a      	ldr	r2, [r3, #0]
 8001f2e:	687b      	ldr	r3, [r7, #4]
 8001f30:	685b      	ldr	r3, [r3, #4]
 8001f32:	f042 0204 	orr.w	r2, r2, #4
 8001f36:	601a      	str	r2, [r3, #0]
        }
        if(config->interrupts |= DMA_Configuration.DMA_Interrupts.Direct_Mode_Error)
 8001f38:	687b      	ldr	r3, [r7, #4]
 8001f3a:	69db      	ldr	r3, [r3, #28]
 8001f3c:	2202      	movs	r2, #2
 8001f3e:	431a      	orrs	r2, r3
 8001f40:	687b      	ldr	r3, [r7, #4]
 8001f42:	61da      	str	r2, [r3, #28]
 8001f44:	687b      	ldr	r3, [r7, #4]
 8001f46:	69db      	ldr	r3, [r3, #28]
 8001f48:	2b00      	cmp	r3, #0
 8001f4a:	d007      	beq.n	8001f5c <DMA_Init+0x150>
        {
        	config->Request.Stream->CR |= DMA_SxCR_DMEIE;
 8001f4c:	687b      	ldr	r3, [r7, #4]
 8001f4e:	685b      	ldr	r3, [r3, #4]
 8001f50:	681a      	ldr	r2, [r3, #0]
 8001f52:	687b      	ldr	r3, [r7, #4]
 8001f54:	685b      	ldr	r3, [r3, #4]
 8001f56:	f042 0202 	orr.w	r2, r2, #2
 8001f5a:	601a      	str	r2, [r3, #0]
        }

        // Enable the corresponding NVIC interrupt for the DMA stream
        if(config->Request.Controller == DMA1)
 8001f5c:	687b      	ldr	r3, [r7, #4]
 8001f5e:	681b      	ldr	r3, [r3, #0]
 8001f60:	4a67      	ldr	r2, [pc, #412]	@ (8002100 <DMA_Init+0x2f4>)
 8001f62:	4293      	cmp	r3, r2
 8001f64:	d147      	bne.n	8001ff6 <DMA_Init+0x1ea>
        {
            if(config->Request.Stream == DMA1_Stream0){
 8001f66:	687b      	ldr	r3, [r7, #4]
 8001f68:	685b      	ldr	r3, [r3, #4]
 8001f6a:	4a66      	ldr	r2, [pc, #408]	@ (8002104 <DMA_Init+0x2f8>)
 8001f6c:	4293      	cmp	r3, r2
 8001f6e:	d103      	bne.n	8001f78 <DMA_Init+0x16c>
            	NVIC_EnableIRQ(DMA1_Stream0_IRQn);
 8001f70:	200b      	movs	r0, #11
 8001f72:	f7fe fd47 	bl	8000a04 <__NVIC_EnableIRQ>
 8001f76:	e08a      	b.n	800208e <DMA_Init+0x282>
            }
            else if(config->Request.Stream == DMA1_Stream1){
 8001f78:	687b      	ldr	r3, [r7, #4]
 8001f7a:	685b      	ldr	r3, [r3, #4]
 8001f7c:	4a62      	ldr	r2, [pc, #392]	@ (8002108 <DMA_Init+0x2fc>)
 8001f7e:	4293      	cmp	r3, r2
 8001f80:	d103      	bne.n	8001f8a <DMA_Init+0x17e>
            	NVIC_EnableIRQ(DMA1_Stream1_IRQn);
 8001f82:	200c      	movs	r0, #12
 8001f84:	f7fe fd3e 	bl	8000a04 <__NVIC_EnableIRQ>
 8001f88:	e081      	b.n	800208e <DMA_Init+0x282>
            }
            else if(config->Request.Stream == DMA1_Stream2){
 8001f8a:	687b      	ldr	r3, [r7, #4]
 8001f8c:	685b      	ldr	r3, [r3, #4]
 8001f8e:	4a5f      	ldr	r2, [pc, #380]	@ (800210c <DMA_Init+0x300>)
 8001f90:	4293      	cmp	r3, r2
 8001f92:	d103      	bne.n	8001f9c <DMA_Init+0x190>
            	NVIC_EnableIRQ(DMA1_Stream2_IRQn);
 8001f94:	200d      	movs	r0, #13
 8001f96:	f7fe fd35 	bl	8000a04 <__NVIC_EnableIRQ>
 8001f9a:	e078      	b.n	800208e <DMA_Init+0x282>
            }
            else if(config->Request.Stream == DMA1_Stream3){
 8001f9c:	687b      	ldr	r3, [r7, #4]
 8001f9e:	685b      	ldr	r3, [r3, #4]
 8001fa0:	4a5b      	ldr	r2, [pc, #364]	@ (8002110 <DMA_Init+0x304>)
 8001fa2:	4293      	cmp	r3, r2
 8001fa4:	d103      	bne.n	8001fae <DMA_Init+0x1a2>
            	NVIC_EnableIRQ(DMA1_Stream3_IRQn);
 8001fa6:	200e      	movs	r0, #14
 8001fa8:	f7fe fd2c 	bl	8000a04 <__NVIC_EnableIRQ>
 8001fac:	e06f      	b.n	800208e <DMA_Init+0x282>
            }
            else if(config->Request.Stream == DMA1_Stream4){
 8001fae:	687b      	ldr	r3, [r7, #4]
 8001fb0:	685b      	ldr	r3, [r3, #4]
 8001fb2:	4a58      	ldr	r2, [pc, #352]	@ (8002114 <DMA_Init+0x308>)
 8001fb4:	4293      	cmp	r3, r2
 8001fb6:	d103      	bne.n	8001fc0 <DMA_Init+0x1b4>
            	NVIC_EnableIRQ(DMA1_Stream4_IRQn);
 8001fb8:	200f      	movs	r0, #15
 8001fba:	f7fe fd23 	bl	8000a04 <__NVIC_EnableIRQ>
 8001fbe:	e066      	b.n	800208e <DMA_Init+0x282>
            }
            else if(config->Request.Stream == DMA1_Stream5){
 8001fc0:	687b      	ldr	r3, [r7, #4]
 8001fc2:	685b      	ldr	r3, [r3, #4]
 8001fc4:	4a54      	ldr	r2, [pc, #336]	@ (8002118 <DMA_Init+0x30c>)
 8001fc6:	4293      	cmp	r3, r2
 8001fc8:	d103      	bne.n	8001fd2 <DMA_Init+0x1c6>
            	NVIC_EnableIRQ(DMA1_Stream5_IRQn);
 8001fca:	2010      	movs	r0, #16
 8001fcc:	f7fe fd1a 	bl	8000a04 <__NVIC_EnableIRQ>
 8001fd0:	e05d      	b.n	800208e <DMA_Init+0x282>
            }
            else if(config->Request.Stream == DMA1_Stream6) {
 8001fd2:	687b      	ldr	r3, [r7, #4]
 8001fd4:	685b      	ldr	r3, [r3, #4]
 8001fd6:	4a51      	ldr	r2, [pc, #324]	@ (800211c <DMA_Init+0x310>)
 8001fd8:	4293      	cmp	r3, r2
 8001fda:	d103      	bne.n	8001fe4 <DMA_Init+0x1d8>
            	NVIC_EnableIRQ(DMA1_Stream6_IRQn);
 8001fdc:	2011      	movs	r0, #17
 8001fde:	f7fe fd11 	bl	8000a04 <__NVIC_EnableIRQ>
 8001fe2:	e054      	b.n	800208e <DMA_Init+0x282>
            }
            else if(config->Request.Stream == DMA1_Stream7){
 8001fe4:	687b      	ldr	r3, [r7, #4]
 8001fe6:	685b      	ldr	r3, [r3, #4]
 8001fe8:	4a4d      	ldr	r2, [pc, #308]	@ (8002120 <DMA_Init+0x314>)
 8001fea:	4293      	cmp	r3, r2
 8001fec:	d14f      	bne.n	800208e <DMA_Init+0x282>
            	NVIC_EnableIRQ(DMA1_Stream7_IRQn);
 8001fee:	202f      	movs	r0, #47	@ 0x2f
 8001ff0:	f7fe fd08 	bl	8000a04 <__NVIC_EnableIRQ>
 8001ff4:	e04b      	b.n	800208e <DMA_Init+0x282>
            }
        }
        else if(config->Request.Controller == DMA2)
 8001ff6:	687b      	ldr	r3, [r7, #4]
 8001ff8:	681b      	ldr	r3, [r3, #0]
 8001ffa:	4a4a      	ldr	r2, [pc, #296]	@ (8002124 <DMA_Init+0x318>)
 8001ffc:	4293      	cmp	r3, r2
 8001ffe:	d146      	bne.n	800208e <DMA_Init+0x282>
        {
            if(config->Request.Stream == DMA2_Stream0){
 8002000:	687b      	ldr	r3, [r7, #4]
 8002002:	685b      	ldr	r3, [r3, #4]
 8002004:	4a48      	ldr	r2, [pc, #288]	@ (8002128 <DMA_Init+0x31c>)
 8002006:	4293      	cmp	r3, r2
 8002008:	d103      	bne.n	8002012 <DMA_Init+0x206>
            	NVIC_EnableIRQ(DMA2_Stream0_IRQn);
 800200a:	2038      	movs	r0, #56	@ 0x38
 800200c:	f7fe fcfa 	bl	8000a04 <__NVIC_EnableIRQ>
 8002010:	e03d      	b.n	800208e <DMA_Init+0x282>
            }
            else if(config->Request.Stream == DMA2_Stream1){
 8002012:	687b      	ldr	r3, [r7, #4]
 8002014:	685b      	ldr	r3, [r3, #4]
 8002016:	4a45      	ldr	r2, [pc, #276]	@ (800212c <DMA_Init+0x320>)
 8002018:	4293      	cmp	r3, r2
 800201a:	d103      	bne.n	8002024 <DMA_Init+0x218>
            	NVIC_EnableIRQ(DMA2_Stream1_IRQn);
 800201c:	2039      	movs	r0, #57	@ 0x39
 800201e:	f7fe fcf1 	bl	8000a04 <__NVIC_EnableIRQ>
 8002022:	e034      	b.n	800208e <DMA_Init+0x282>
            }
            else if(config->Request.Stream == DMA2_Stream2){
 8002024:	687b      	ldr	r3, [r7, #4]
 8002026:	685b      	ldr	r3, [r3, #4]
 8002028:	4a41      	ldr	r2, [pc, #260]	@ (8002130 <DMA_Init+0x324>)
 800202a:	4293      	cmp	r3, r2
 800202c:	d103      	bne.n	8002036 <DMA_Init+0x22a>
            	NVIC_EnableIRQ(DMA2_Stream2_IRQn);
 800202e:	203a      	movs	r0, #58	@ 0x3a
 8002030:	f7fe fce8 	bl	8000a04 <__NVIC_EnableIRQ>
 8002034:	e02b      	b.n	800208e <DMA_Init+0x282>
            }
            else if(config->Request.Stream == DMA2_Stream3){
 8002036:	687b      	ldr	r3, [r7, #4]
 8002038:	685b      	ldr	r3, [r3, #4]
 800203a:	4a3e      	ldr	r2, [pc, #248]	@ (8002134 <DMA_Init+0x328>)
 800203c:	4293      	cmp	r3, r2
 800203e:	d103      	bne.n	8002048 <DMA_Init+0x23c>
            	NVIC_EnableIRQ(DMA2_Stream3_IRQn);
 8002040:	203b      	movs	r0, #59	@ 0x3b
 8002042:	f7fe fcdf 	bl	8000a04 <__NVIC_EnableIRQ>
 8002046:	e022      	b.n	800208e <DMA_Init+0x282>
            }
            else if(config->Request.Stream == DMA2_Stream4){
 8002048:	687b      	ldr	r3, [r7, #4]
 800204a:	685b      	ldr	r3, [r3, #4]
 800204c:	4a3a      	ldr	r2, [pc, #232]	@ (8002138 <DMA_Init+0x32c>)
 800204e:	4293      	cmp	r3, r2
 8002050:	d103      	bne.n	800205a <DMA_Init+0x24e>
            	NVIC_EnableIRQ(DMA2_Stream4_IRQn);
 8002052:	203c      	movs	r0, #60	@ 0x3c
 8002054:	f7fe fcd6 	bl	8000a04 <__NVIC_EnableIRQ>
 8002058:	e019      	b.n	800208e <DMA_Init+0x282>
            }
            else if(config->Request.Stream == DMA2_Stream5){
 800205a:	687b      	ldr	r3, [r7, #4]
 800205c:	685b      	ldr	r3, [r3, #4]
 800205e:	4a37      	ldr	r2, [pc, #220]	@ (800213c <DMA_Init+0x330>)
 8002060:	4293      	cmp	r3, r2
 8002062:	d103      	bne.n	800206c <DMA_Init+0x260>
            	NVIC_EnableIRQ(DMA2_Stream5_IRQn);
 8002064:	2044      	movs	r0, #68	@ 0x44
 8002066:	f7fe fccd 	bl	8000a04 <__NVIC_EnableIRQ>
 800206a:	e010      	b.n	800208e <DMA_Init+0x282>
            }
            else if(config->Request.Stream == DMA2_Stream6){
 800206c:	687b      	ldr	r3, [r7, #4]
 800206e:	685b      	ldr	r3, [r3, #4]
 8002070:	4a33      	ldr	r2, [pc, #204]	@ (8002140 <DMA_Init+0x334>)
 8002072:	4293      	cmp	r3, r2
 8002074:	d103      	bne.n	800207e <DMA_Init+0x272>
            	NVIC_EnableIRQ(DMA2_Stream6_IRQn);
 8002076:	2045      	movs	r0, #69	@ 0x45
 8002078:	f7fe fcc4 	bl	8000a04 <__NVIC_EnableIRQ>
 800207c:	e007      	b.n	800208e <DMA_Init+0x282>
            }
            else if(config->Request.Stream == DMA2_Stream7){
 800207e:	687b      	ldr	r3, [r7, #4]
 8002080:	685b      	ldr	r3, [r3, #4]
 8002082:	4a30      	ldr	r2, [pc, #192]	@ (8002144 <DMA_Init+0x338>)
 8002084:	4293      	cmp	r3, r2
 8002086:	d102      	bne.n	800208e <DMA_Init+0x282>
//            	NVIC_SetPriority(DMA2_Stream7_IRQn,0);
            	NVIC_EnableIRQ(DMA2_Stream7_IRQn);
 8002088:	2046      	movs	r0, #70	@ 0x46
 800208a:	f7fe fcbb 	bl	8000a04 <__NVIC_EnableIRQ>
            }
        }
    }

    // Configure memory and peripheral pointer increments
    config->Request.Stream->CR |= config->memory_pointer_increment;
 800208e:	687b      	ldr	r3, [r7, #4]
 8002090:	685b      	ldr	r3, [r3, #4]
 8002092:	681a      	ldr	r2, [r3, #0]
 8002094:	687b      	ldr	r3, [r7, #4]
 8002096:	8c1b      	ldrh	r3, [r3, #32]
 8002098:	4619      	mov	r1, r3
 800209a:	687b      	ldr	r3, [r7, #4]
 800209c:	685b      	ldr	r3, [r3, #4]
 800209e:	430a      	orrs	r2, r1
 80020a0:	601a      	str	r2, [r3, #0]
    config->Request.Stream->CR |= config->peripheral_pointer_increment;
 80020a2:	687b      	ldr	r3, [r7, #4]
 80020a4:	685b      	ldr	r3, [r3, #4]
 80020a6:	681a      	ldr	r2, [r3, #0]
 80020a8:	687b      	ldr	r3, [r7, #4]
 80020aa:	8c5b      	ldrh	r3, [r3, #34]	@ 0x22
 80020ac:	4619      	mov	r1, r3
 80020ae:	687b      	ldr	r3, [r7, #4]
 80020b0:	685b      	ldr	r3, [r3, #4]
 80020b2:	430a      	orrs	r2, r1
 80020b4:	601a      	str	r2, [r3, #0]

    // Configure circular mode
    if(config->circular_mode == DMA_Configuration.Circular_Mode.Enable)
 80020b6:	687b      	ldr	r3, [r7, #4]
 80020b8:	699b      	ldr	r3, [r3, #24]
 80020ba:	f44f 7280 	mov.w	r2, #256	@ 0x100
 80020be:	4293      	cmp	r3, r2
 80020c0:	d108      	bne.n	80020d4 <DMA_Init+0x2c8>
    {
        config->Request.Stream->CR |= DMA_SxCR_CIRC;
 80020c2:	687b      	ldr	r3, [r7, #4]
 80020c4:	685b      	ldr	r3, [r3, #4]
 80020c6:	681a      	ldr	r2, [r3, #0]
 80020c8:	687b      	ldr	r3, [r7, #4]
 80020ca:	685b      	ldr	r3, [r3, #4]
 80020cc:	f442 7280 	orr.w	r2, r2, #256	@ 0x100
 80020d0:	601a      	str	r2, [r3, #0]
 80020d2:	e010      	b.n	80020f6 <DMA_Init+0x2ea>
    }
    else if(config->circular_mode == DMA_Configuration.Circular_Mode.Disable)
 80020d4:	687b      	ldr	r3, [r7, #4]
 80020d6:	699b      	ldr	r3, [r3, #24]
 80020d8:	2200      	movs	r2, #0
 80020da:	4293      	cmp	r3, r2
 80020dc:	d108      	bne.n	80020f0 <DMA_Init+0x2e4>
    {
        config->Request.Stream->CR &= ~DMA_SxCR_CIRC;
 80020de:	687b      	ldr	r3, [r7, #4]
 80020e0:	685b      	ldr	r3, [r3, #4]
 80020e2:	681a      	ldr	r2, [r3, #0]
 80020e4:	687b      	ldr	r3, [r7, #4]
 80020e6:	685b      	ldr	r3, [r3, #4]
 80020e8:	f422 7280 	bic.w	r2, r2, #256	@ 0x100
 80020ec:	601a      	str	r2, [r3, #0]
 80020ee:	e002      	b.n	80020f6 <DMA_Init+0x2ea>
    }
    else
    {
        return -1;  // Return -1 if circular mode configuration is invalid
 80020f0:	f04f 33ff 	mov.w	r3, #4294967295
 80020f4:	e000      	b.n	80020f8 <DMA_Init+0x2ec>
    }

    return 1;  // Return 1 on successful initialization
 80020f6:	2301      	movs	r3, #1
}
 80020f8:	4618      	mov	r0, r3
 80020fa:	3708      	adds	r7, #8
 80020fc:	46bd      	mov	sp, r7
 80020fe:	bd80      	pop	{r7, pc}
 8002100:	40026000 	.word	0x40026000
 8002104:	40026010 	.word	0x40026010
 8002108:	40026028 	.word	0x40026028
 800210c:	40026040 	.word	0x40026040
 8002110:	40026058 	.word	0x40026058
 8002114:	40026070 	.word	0x40026070
 8002118:	40026088 	.word	0x40026088
 800211c:	400260a0 	.word	0x400260a0
 8002120:	400260b8 	.word	0x400260b8
 8002124:	40026400 	.word	0x40026400
 8002128:	40026410 	.word	0x40026410
 800212c:	40026428 	.word	0x40026428
 8002130:	40026440 	.word	0x40026440
 8002134:	40026458 	.word	0x40026458
 8002138:	40026470 	.word	0x40026470
 800213c:	40026488 	.word	0x40026488
 8002140:	400264a0 	.word	0x400264a0
 8002144:	400264b8 	.word	0x400264b8

08002148 <DMA_Set_Target>:
 * memory increment before applying the new settings.
 *
 * @param[in] config Pointer to the `DMA_Config` structure containing the target configuration.
 */
void DMA_Set_Target(DMA_Config *config)
{
 8002148:	b480      	push	{r7}
 800214a:	b083      	sub	sp, #12
 800214c:	af00      	add	r7, sp, #0
 800214e:	6078      	str	r0, [r7, #4]
	config -> Request.Stream -> CR &= ~DMA_SxCR_EN;
 8002150:	687b      	ldr	r3, [r7, #4]
 8002152:	685b      	ldr	r3, [r3, #4]
 8002154:	681a      	ldr	r2, [r3, #0]
 8002156:	687b      	ldr	r3, [r7, #4]
 8002158:	685b      	ldr	r3, [r3, #4]
 800215a:	f022 0201 	bic.w	r2, r2, #1
 800215e:	601a      	str	r2, [r3, #0]

	if(config -> circular_mode == DMA_Configuration.Circular_Mode.Disable)
 8002160:	687b      	ldr	r3, [r7, #4]
 8002162:	699b      	ldr	r3, [r3, #24]
 8002164:	2200      	movs	r2, #0
 8002166:	4293      	cmp	r3, r2
 8002168:	d108      	bne.n	800217c <DMA_Set_Target+0x34>
	{
		config -> Request.Stream -> CR &= ~DMA_SxCR_CIRC;
 800216a:	687b      	ldr	r3, [r7, #4]
 800216c:	685b      	ldr	r3, [r3, #4]
 800216e:	681a      	ldr	r2, [r3, #0]
 8002170:	687b      	ldr	r3, [r7, #4]
 8002172:	685b      	ldr	r3, [r3, #4]
 8002174:	f422 7280 	bic.w	r2, r2, #256	@ 0x100
 8002178:	601a      	str	r2, [r3, #0]
 800217a:	e00d      	b.n	8002198 <DMA_Set_Target+0x50>
	}
	else if(config -> circular_mode == DMA_Configuration.Circular_Mode.Enable)
 800217c:	687b      	ldr	r3, [r7, #4]
 800217e:	699b      	ldr	r3, [r3, #24]
 8002180:	f44f 7280 	mov.w	r2, #256	@ 0x100
 8002184:	4293      	cmp	r3, r2
 8002186:	d107      	bne.n	8002198 <DMA_Set_Target+0x50>
	{
		config -> Request.Stream -> CR |= DMA_SxCR_CIRC;
 8002188:	687b      	ldr	r3, [r7, #4]
 800218a:	685b      	ldr	r3, [r3, #4]
 800218c:	681a      	ldr	r2, [r3, #0]
 800218e:	687b      	ldr	r3, [r7, #4]
 8002190:	685b      	ldr	r3, [r3, #4]
 8002192:	f442 7280 	orr.w	r2, r2, #256	@ 0x100
 8002196:	601a      	str	r2, [r3, #0]
	}

    // Clear previous data size and memory increment settings
    config -> Request.Stream -> CR &= ~(DMA_SxCR_MSIZE | DMA_SxCR_PSIZE | DMA_SxCR_MINC);
 8002198:	687b      	ldr	r3, [r7, #4]
 800219a:	685b      	ldr	r3, [r3, #4]
 800219c:	681a      	ldr	r2, [r3, #0]
 800219e:	687b      	ldr	r3, [r7, #4]
 80021a0:	685b      	ldr	r3, [r3, #4]
 80021a2:	f422 42f8 	bic.w	r2, r2, #31744	@ 0x7c00
 80021a6:	601a      	str	r2, [r3, #0]

    // Set the peripheral data size
    config -> Request.Stream -> CR |= config -> peripheral_data_size;
 80021a8:	687b      	ldr	r3, [r7, #4]
 80021aa:	685b      	ldr	r3, [r3, #4]
 80021ac:	6819      	ldr	r1, [r3, #0]
 80021ae:	687b      	ldr	r3, [r7, #4]
 80021b0:	6a5a      	ldr	r2, [r3, #36]	@ 0x24
 80021b2:	687b      	ldr	r3, [r7, #4]
 80021b4:	685b      	ldr	r3, [r3, #4]
 80021b6:	430a      	orrs	r2, r1
 80021b8:	601a      	str	r2, [r3, #0]

    // Set the memory data size
    config -> Request.Stream -> CR |= config -> memory_data_size;
 80021ba:	687b      	ldr	r3, [r7, #4]
 80021bc:	685b      	ldr	r3, [r3, #4]
 80021be:	6819      	ldr	r1, [r3, #0]
 80021c0:	687b      	ldr	r3, [r7, #4]
 80021c2:	6a9a      	ldr	r2, [r3, #40]	@ 0x28
 80021c4:	687b      	ldr	r3, [r7, #4]
 80021c6:	685b      	ldr	r3, [r3, #4]
 80021c8:	430a      	orrs	r2, r1
 80021ca:	601a      	str	r2, [r3, #0]

    // Set the number of data items to be transferred
    config -> Request.Stream -> NDTR = config -> buffer_length;
 80021cc:	687b      	ldr	r3, [r7, #4]
 80021ce:	8e9a      	ldrh	r2, [r3, #52]	@ 0x34
 80021d0:	687b      	ldr	r3, [r7, #4]
 80021d2:	685b      	ldr	r3, [r3, #4]
 80021d4:	605a      	str	r2, [r3, #4]

    // Set memory pointer increment mode
    config -> Request.Stream -> CR |= DMA_SxCR_MINC;
 80021d6:	687b      	ldr	r3, [r7, #4]
 80021d8:	685b      	ldr	r3, [r3, #4]
 80021da:	681a      	ldr	r2, [r3, #0]
 80021dc:	687b      	ldr	r3, [r7, #4]
 80021de:	685b      	ldr	r3, [r3, #4]
 80021e0:	f442 6280 	orr.w	r2, r2, #1024	@ 0x400
 80021e4:	601a      	str	r2, [r3, #0]

    // Set the memory address
    config -> Request.Stream -> M0AR = (uint32_t)config->memory_address;
 80021e6:	687b      	ldr	r3, [r7, #4]
 80021e8:	685b      	ldr	r3, [r3, #4]
 80021ea:	687a      	ldr	r2, [r7, #4]
 80021ec:	6b12      	ldr	r2, [r2, #48]	@ 0x30
 80021ee:	60da      	str	r2, [r3, #12]

    // Set the peripheral address
    config -> Request.Stream -> PAR = (uint32_t)config->peripheral_address;
 80021f0:	687b      	ldr	r3, [r7, #4]
 80021f2:	685b      	ldr	r3, [r3, #4]
 80021f4:	687a      	ldr	r2, [r7, #4]
 80021f6:	6ad2      	ldr	r2, [r2, #44]	@ 0x2c
 80021f8:	609a      	str	r2, [r3, #8]
}
 80021fa:	bf00      	nop
 80021fc:	370c      	adds	r7, #12
 80021fe:	46bd      	mov	sp, r7
 8002200:	f85d 7b04 	ldr.w	r7, [sp], #4
 8002204:	4770      	bx	lr
	...

08002208 <DMA_Set_Trigger>:
 * number and the DMA controller (DMA1 or DMA2).
 *
 * @param[in] config Pointer to the `DMA_Config` structure that contains the configuration settings.
 */
void DMA_Set_Trigger(DMA_Config *config)
{
 8002208:	b480      	push	{r7}
 800220a:	b087      	sub	sp, #28
 800220c:	af00      	add	r7, sp, #0
 800220e:	6078      	str	r0, [r7, #4]
    // Bit shift values for streams 0 to 7
    static const uint8_t LIFCR_Shifts[4] = {0, 6, 16, 22};
    static const uint8_t HIFCR_Shifts[4] = {0, 6, 16, 22};

    DMA_TypeDef *controller = config->Request.Controller;
 8002210:	687b      	ldr	r3, [r7, #4]
 8002212:	681b      	ldr	r3, [r3, #0]
 8002214:	617b      	str	r3, [r7, #20]
    DMA_Stream_TypeDef *stream = config->Request.Stream;
 8002216:	687b      	ldr	r3, [r7, #4]
 8002218:	685b      	ldr	r3, [r3, #4]
 800221a:	613b      	str	r3, [r7, #16]
    uint32_t shift;

    if (controller == DMA1 || controller == DMA2)
 800221c:	697b      	ldr	r3, [r7, #20]
 800221e:	4a43      	ldr	r2, [pc, #268]	@ (800232c <DMA_Set_Trigger+0x124>)
 8002220:	4293      	cmp	r3, r2
 8002222:	d003      	beq.n	800222c <DMA_Set_Trigger+0x24>
 8002224:	697b      	ldr	r3, [r7, #20]
 8002226:	4a42      	ldr	r2, [pc, #264]	@ (8002330 <DMA_Set_Trigger+0x128>)
 8002228:	4293      	cmp	r3, r2
 800222a:	d178      	bne.n	800231e <DMA_Set_Trigger+0x116>
    {
        // Determine the correct shift value and clear the corresponding flags in LIFCR or HIFCR
        if (stream >= DMA1_Stream0 && stream <= DMA1_Stream3)
 800222c:	693b      	ldr	r3, [r7, #16]
 800222e:	4a41      	ldr	r2, [pc, #260]	@ (8002334 <DMA_Set_Trigger+0x12c>)
 8002230:	4293      	cmp	r3, r2
 8002232:	d918      	bls.n	8002266 <DMA_Set_Trigger+0x5e>
 8002234:	693b      	ldr	r3, [r7, #16]
 8002236:	4a40      	ldr	r2, [pc, #256]	@ (8002338 <DMA_Set_Trigger+0x130>)
 8002238:	4293      	cmp	r3, r2
 800223a:	d814      	bhi.n	8002266 <DMA_Set_Trigger+0x5e>
        {
            shift = LIFCR_Shifts[stream - DMA1_Stream0];
 800223c:	693a      	ldr	r2, [r7, #16]
 800223e:	4b3f      	ldr	r3, [pc, #252]	@ (800233c <DMA_Set_Trigger+0x134>)
 8002240:	4413      	add	r3, r2
 8002242:	10db      	asrs	r3, r3, #3
 8002244:	4a3e      	ldr	r2, [pc, #248]	@ (8002340 <DMA_Set_Trigger+0x138>)
 8002246:	fb02 f303 	mul.w	r3, r2, r3
 800224a:	461a      	mov	r2, r3
 800224c:	4b3d      	ldr	r3, [pc, #244]	@ (8002344 <DMA_Set_Trigger+0x13c>)
 800224e:	5c9b      	ldrb	r3, [r3, r2]
 8002250:	60fb      	str	r3, [r7, #12]
            controller->LIFCR |= 0x3F << shift;  // Clear interrupt flags for the stream
 8002252:	697b      	ldr	r3, [r7, #20]
 8002254:	689b      	ldr	r3, [r3, #8]
 8002256:	213f      	movs	r1, #63	@ 0x3f
 8002258:	68fa      	ldr	r2, [r7, #12]
 800225a:	fa01 f202 	lsl.w	r2, r1, r2
 800225e:	431a      	orrs	r2, r3
 8002260:	697b      	ldr	r3, [r7, #20]
 8002262:	609a      	str	r2, [r3, #8]
 8002264:	e055      	b.n	8002312 <DMA_Set_Trigger+0x10a>
        }
        else if (stream >= DMA1_Stream4 && stream <= DMA1_Stream7)
 8002266:	693b      	ldr	r3, [r7, #16]
 8002268:	4a37      	ldr	r2, [pc, #220]	@ (8002348 <DMA_Set_Trigger+0x140>)
 800226a:	4293      	cmp	r3, r2
 800226c:	d918      	bls.n	80022a0 <DMA_Set_Trigger+0x98>
 800226e:	693b      	ldr	r3, [r7, #16]
 8002270:	4a36      	ldr	r2, [pc, #216]	@ (800234c <DMA_Set_Trigger+0x144>)
 8002272:	4293      	cmp	r3, r2
 8002274:	d814      	bhi.n	80022a0 <DMA_Set_Trigger+0x98>
        {
            shift = HIFCR_Shifts[stream - DMA1_Stream4];
 8002276:	693a      	ldr	r2, [r7, #16]
 8002278:	4b35      	ldr	r3, [pc, #212]	@ (8002350 <DMA_Set_Trigger+0x148>)
 800227a:	4413      	add	r3, r2
 800227c:	10db      	asrs	r3, r3, #3
 800227e:	4a30      	ldr	r2, [pc, #192]	@ (8002340 <DMA_Set_Trigger+0x138>)
 8002280:	fb02 f303 	mul.w	r3, r2, r3
 8002284:	461a      	mov	r2, r3
 8002286:	4b33      	ldr	r3, [pc, #204]	@ (8002354 <DMA_Set_Trigger+0x14c>)
 8002288:	5c9b      	ldrb	r3, [r3, r2]
 800228a:	60fb      	str	r3, [r7, #12]
            controller->HIFCR |= 0x3F << shift;  // Clear interrupt flags for the stream
 800228c:	697b      	ldr	r3, [r7, #20]
 800228e:	68db      	ldr	r3, [r3, #12]
 8002290:	213f      	movs	r1, #63	@ 0x3f
 8002292:	68fa      	ldr	r2, [r7, #12]
 8002294:	fa01 f202 	lsl.w	r2, r1, r2
 8002298:	431a      	orrs	r2, r3
 800229a:	697b      	ldr	r3, [r7, #20]
 800229c:	60da      	str	r2, [r3, #12]
 800229e:	e038      	b.n	8002312 <DMA_Set_Trigger+0x10a>
        }
        else if (stream >= DMA2_Stream0 && stream <= DMA2_Stream3)
 80022a0:	693b      	ldr	r3, [r7, #16]
 80022a2:	4a2d      	ldr	r2, [pc, #180]	@ (8002358 <DMA_Set_Trigger+0x150>)
 80022a4:	4293      	cmp	r3, r2
 80022a6:	d918      	bls.n	80022da <DMA_Set_Trigger+0xd2>
 80022a8:	693b      	ldr	r3, [r7, #16]
 80022aa:	4a2c      	ldr	r2, [pc, #176]	@ (800235c <DMA_Set_Trigger+0x154>)
 80022ac:	4293      	cmp	r3, r2
 80022ae:	d814      	bhi.n	80022da <DMA_Set_Trigger+0xd2>
        {
            shift = LIFCR_Shifts[stream - DMA2_Stream0];
 80022b0:	693a      	ldr	r2, [r7, #16]
 80022b2:	4b2b      	ldr	r3, [pc, #172]	@ (8002360 <DMA_Set_Trigger+0x158>)
 80022b4:	4413      	add	r3, r2
 80022b6:	10db      	asrs	r3, r3, #3
 80022b8:	4a21      	ldr	r2, [pc, #132]	@ (8002340 <DMA_Set_Trigger+0x138>)
 80022ba:	fb02 f303 	mul.w	r3, r2, r3
 80022be:	461a      	mov	r2, r3
 80022c0:	4b20      	ldr	r3, [pc, #128]	@ (8002344 <DMA_Set_Trigger+0x13c>)
 80022c2:	5c9b      	ldrb	r3, [r3, r2]
 80022c4:	60fb      	str	r3, [r7, #12]
            controller->LIFCR |= 0x3F << shift;  // Clear interrupt flags for the stream
 80022c6:	697b      	ldr	r3, [r7, #20]
 80022c8:	689b      	ldr	r3, [r3, #8]
 80022ca:	213f      	movs	r1, #63	@ 0x3f
 80022cc:	68fa      	ldr	r2, [r7, #12]
 80022ce:	fa01 f202 	lsl.w	r2, r1, r2
 80022d2:	431a      	orrs	r2, r3
 80022d4:	697b      	ldr	r3, [r7, #20]
 80022d6:	609a      	str	r2, [r3, #8]
 80022d8:	e01b      	b.n	8002312 <DMA_Set_Trigger+0x10a>
        }
        else if (stream >= DMA2_Stream4 && stream <= DMA2_Stream7)
 80022da:	693b      	ldr	r3, [r7, #16]
 80022dc:	4a21      	ldr	r2, [pc, #132]	@ (8002364 <DMA_Set_Trigger+0x15c>)
 80022de:	4293      	cmp	r3, r2
 80022e0:	d917      	bls.n	8002312 <DMA_Set_Trigger+0x10a>
 80022e2:	693b      	ldr	r3, [r7, #16]
 80022e4:	4a20      	ldr	r2, [pc, #128]	@ (8002368 <DMA_Set_Trigger+0x160>)
 80022e6:	4293      	cmp	r3, r2
 80022e8:	d813      	bhi.n	8002312 <DMA_Set_Trigger+0x10a>
        {
            shift = HIFCR_Shifts[stream - DMA2_Stream4];
 80022ea:	693a      	ldr	r2, [r7, #16]
 80022ec:	4b1f      	ldr	r3, [pc, #124]	@ (800236c <DMA_Set_Trigger+0x164>)
 80022ee:	4413      	add	r3, r2
 80022f0:	10db      	asrs	r3, r3, #3
 80022f2:	4a13      	ldr	r2, [pc, #76]	@ (8002340 <DMA_Set_Trigger+0x138>)
 80022f4:	fb02 f303 	mul.w	r3, r2, r3
 80022f8:	461a      	mov	r2, r3
 80022fa:	4b16      	ldr	r3, [pc, #88]	@ (8002354 <DMA_Set_Trigger+0x14c>)
 80022fc:	5c9b      	ldrb	r3, [r3, r2]
 80022fe:	60fb      	str	r3, [r7, #12]
            controller->HIFCR |= 0x3F << shift;  // Clear interrupt flags for the stream
 8002300:	697b      	ldr	r3, [r7, #20]
 8002302:	68db      	ldr	r3, [r3, #12]
 8002304:	213f      	movs	r1, #63	@ 0x3f
 8002306:	68fa      	ldr	r2, [r7, #12]
 8002308:	fa01 f202 	lsl.w	r2, r1, r2
 800230c:	431a      	orrs	r2, r3
 800230e:	697b      	ldr	r3, [r7, #20]
 8002310:	60da      	str	r2, [r3, #12]
        }

        stream->CR |= DMA_SxCR_EN;  // Enable the DMA stream
 8002312:	693b      	ldr	r3, [r7, #16]
 8002314:	681b      	ldr	r3, [r3, #0]
 8002316:	f043 0201 	orr.w	r2, r3, #1
 800231a:	693b      	ldr	r3, [r7, #16]
 800231c:	601a      	str	r2, [r3, #0]
    }
}
 800231e:	bf00      	nop
 8002320:	371c      	adds	r7, #28
 8002322:	46bd      	mov	sp, r7
 8002324:	f85d 7b04 	ldr.w	r7, [sp], #4
 8002328:	4770      	bx	lr
 800232a:	bf00      	nop
 800232c:	40026000 	.word	0x40026000
 8002330:	40026400 	.word	0x40026400
 8002334:	4002600f 	.word	0x4002600f
 8002338:	40026058 	.word	0x40026058
 800233c:	bffd9ff0 	.word	0xbffd9ff0
 8002340:	aaaaaaab 	.word	0xaaaaaaab
 8002344:	08003ee4 	.word	0x08003ee4
 8002348:	4002606f 	.word	0x4002606f
 800234c:	400260b8 	.word	0x400260b8
 8002350:	bffd9f90 	.word	0xbffd9f90
 8002354:	08003ee8 	.word	0x08003ee8
 8002358:	4002640f 	.word	0x4002640f
 800235c:	40026458 	.word	0x40026458
 8002360:	bffd9bf0 	.word	0xbffd9bf0
 8002364:	4002646f 	.word	0x4002646f
 8002368:	400264b8 	.word	0x400264b8
 800236c:	bffd9b90 	.word	0xbffd9b90

08002370 <EXTI0_IRQHandler>:
 * @brief Interrupt handler for EXTI line 0.
 *
 * This ISR handles interrupts for pin 0, invoking the associated callback
 * function if one is registered.
 */
void EXTI0_IRQHandler(void) {
 8002370:	b580      	push	{r7, lr}
 8002372:	af00      	add	r7, sp, #0
    if (EXTI_ISR[0]) EXTI_ISR[0](); // Invoke registered callback
 8002374:	4b07      	ldr	r3, [pc, #28]	@ (8002394 <EXTI0_IRQHandler+0x24>)
 8002376:	681b      	ldr	r3, [r3, #0]
 8002378:	2b00      	cmp	r3, #0
 800237a:	d002      	beq.n	8002382 <EXTI0_IRQHandler+0x12>
 800237c:	4b05      	ldr	r3, [pc, #20]	@ (8002394 <EXTI0_IRQHandler+0x24>)
 800237e:	681b      	ldr	r3, [r3, #0]
 8002380:	4798      	blx	r3
    EXTI->PR |= EXTI_PR_PR0;        // Clear interrupt flag
 8002382:	4b05      	ldr	r3, [pc, #20]	@ (8002398 <EXTI0_IRQHandler+0x28>)
 8002384:	695b      	ldr	r3, [r3, #20]
 8002386:	4a04      	ldr	r2, [pc, #16]	@ (8002398 <EXTI0_IRQHandler+0x28>)
 8002388:	f043 0301 	orr.w	r3, r3, #1
 800238c:	6153      	str	r3, [r2, #20]
}
 800238e:	bf00      	nop
 8002390:	bd80      	pop	{r7, pc}
 8002392:	bf00      	nop
 8002394:	20000290 	.word	0x20000290
 8002398:	40013c00 	.word	0x40013c00

0800239c <EXTI1_IRQHandler>:

/**
 * @brief Interrupt handler for EXTI line 1.
 */
void EXTI1_IRQHandler(void) {
 800239c:	b580      	push	{r7, lr}
 800239e:	af00      	add	r7, sp, #0
    if (EXTI_ISR[1]) EXTI_ISR[1]();
 80023a0:	4b07      	ldr	r3, [pc, #28]	@ (80023c0 <EXTI1_IRQHandler+0x24>)
 80023a2:	685b      	ldr	r3, [r3, #4]
 80023a4:	2b00      	cmp	r3, #0
 80023a6:	d002      	beq.n	80023ae <EXTI1_IRQHandler+0x12>
 80023a8:	4b05      	ldr	r3, [pc, #20]	@ (80023c0 <EXTI1_IRQHandler+0x24>)
 80023aa:	685b      	ldr	r3, [r3, #4]
 80023ac:	4798      	blx	r3
    EXTI->PR |= EXTI_PR_PR1;
 80023ae:	4b05      	ldr	r3, [pc, #20]	@ (80023c4 <EXTI1_IRQHandler+0x28>)
 80023b0:	695b      	ldr	r3, [r3, #20]
 80023b2:	4a04      	ldr	r2, [pc, #16]	@ (80023c4 <EXTI1_IRQHandler+0x28>)
 80023b4:	f043 0302 	orr.w	r3, r3, #2
 80023b8:	6153      	str	r3, [r2, #20]
}
 80023ba:	bf00      	nop
 80023bc:	bd80      	pop	{r7, pc}
 80023be:	bf00      	nop
 80023c0:	20000290 	.word	0x20000290
 80023c4:	40013c00 	.word	0x40013c00

080023c8 <EXTI2_IRQHandler>:

/**
 * @brief Interrupt handler for EXTI line 2.
 */
void EXTI2_IRQHandler(void) {
 80023c8:	b580      	push	{r7, lr}
 80023ca:	af00      	add	r7, sp, #0
    if (EXTI_ISR[2]) EXTI_ISR[2]();
 80023cc:	4b07      	ldr	r3, [pc, #28]	@ (80023ec <EXTI2_IRQHandler+0x24>)
 80023ce:	689b      	ldr	r3, [r3, #8]
 80023d0:	2b00      	cmp	r3, #0
 80023d2:	d002      	beq.n	80023da <EXTI2_IRQHandler+0x12>
 80023d4:	4b05      	ldr	r3, [pc, #20]	@ (80023ec <EXTI2_IRQHandler+0x24>)
 80023d6:	689b      	ldr	r3, [r3, #8]
 80023d8:	4798      	blx	r3
    EXTI->PR |= EXTI_PR_PR2;
 80023da:	4b05      	ldr	r3, [pc, #20]	@ (80023f0 <EXTI2_IRQHandler+0x28>)
 80023dc:	695b      	ldr	r3, [r3, #20]
 80023de:	4a04      	ldr	r2, [pc, #16]	@ (80023f0 <EXTI2_IRQHandler+0x28>)
 80023e0:	f043 0304 	orr.w	r3, r3, #4
 80023e4:	6153      	str	r3, [r2, #20]
}
 80023e6:	bf00      	nop
 80023e8:	bd80      	pop	{r7, pc}
 80023ea:	bf00      	nop
 80023ec:	20000290 	.word	0x20000290
 80023f0:	40013c00 	.word	0x40013c00

080023f4 <EXTI3_IRQHandler>:

/**
 * @brief Interrupt handler for EXTI line 3.
 */
void EXTI3_IRQHandler(void) {
 80023f4:	b580      	push	{r7, lr}
 80023f6:	af00      	add	r7, sp, #0
    if (EXTI_ISR[3]) EXTI_ISR[3]();
 80023f8:	4b07      	ldr	r3, [pc, #28]	@ (8002418 <EXTI3_IRQHandler+0x24>)
 80023fa:	68db      	ldr	r3, [r3, #12]
 80023fc:	2b00      	cmp	r3, #0
 80023fe:	d002      	beq.n	8002406 <EXTI3_IRQHandler+0x12>
 8002400:	4b05      	ldr	r3, [pc, #20]	@ (8002418 <EXTI3_IRQHandler+0x24>)
 8002402:	68db      	ldr	r3, [r3, #12]
 8002404:	4798      	blx	r3
    EXTI->PR |= EXTI_PR_PR3;
 8002406:	4b05      	ldr	r3, [pc, #20]	@ (800241c <EXTI3_IRQHandler+0x28>)
 8002408:	695b      	ldr	r3, [r3, #20]
 800240a:	4a04      	ldr	r2, [pc, #16]	@ (800241c <EXTI3_IRQHandler+0x28>)
 800240c:	f043 0308 	orr.w	r3, r3, #8
 8002410:	6153      	str	r3, [r2, #20]
}
 8002412:	bf00      	nop
 8002414:	bd80      	pop	{r7, pc}
 8002416:	bf00      	nop
 8002418:	20000290 	.word	0x20000290
 800241c:	40013c00 	.word	0x40013c00

08002420 <EXTI4_IRQHandler>:

/**
 * @brief Interrupt handler for EXTI line 4.
 */
void EXTI4_IRQHandler(void) {
 8002420:	b580      	push	{r7, lr}
 8002422:	af00      	add	r7, sp, #0
    if (EXTI_ISR[4]) EXTI_ISR[4]();
 8002424:	4b07      	ldr	r3, [pc, #28]	@ (8002444 <EXTI4_IRQHandler+0x24>)
 8002426:	691b      	ldr	r3, [r3, #16]
 8002428:	2b00      	cmp	r3, #0
 800242a:	d002      	beq.n	8002432 <EXTI4_IRQHandler+0x12>
 800242c:	4b05      	ldr	r3, [pc, #20]	@ (8002444 <EXTI4_IRQHandler+0x24>)
 800242e:	691b      	ldr	r3, [r3, #16]
 8002430:	4798      	blx	r3
    EXTI->PR |= EXTI_PR_PR4;
 8002432:	4b05      	ldr	r3, [pc, #20]	@ (8002448 <EXTI4_IRQHandler+0x28>)
 8002434:	695b      	ldr	r3, [r3, #20]
 8002436:	4a04      	ldr	r2, [pc, #16]	@ (8002448 <EXTI4_IRQHandler+0x28>)
 8002438:	f043 0310 	orr.w	r3, r3, #16
 800243c:	6153      	str	r3, [r2, #20]
}
 800243e:	bf00      	nop
 8002440:	bd80      	pop	{r7, pc}
 8002442:	bf00      	nop
 8002444:	20000290 	.word	0x20000290
 8002448:	40013c00 	.word	0x40013c00

0800244c <EXTI9_5_IRQHandler>:
/**
 * @brief Interrupt handler for EXTI lines 5 to 9.
 *
 * Handles interrupts for pins 5 to 9, checking each pin for active flags.
 */
void EXTI9_5_IRQHandler(void) {
 800244c:	b580      	push	{r7, lr}
 800244e:	b082      	sub	sp, #8
 8002450:	af00      	add	r7, sp, #0
    for (int i = 5; i <= 9; ++i) {
 8002452:	2305      	movs	r3, #5
 8002454:	607b      	str	r3, [r7, #4]
 8002456:	e020      	b.n	800249a <EXTI9_5_IRQHandler+0x4e>
        if ((EXTI->PR & (1 << i)) && EXTI_ISR[i]) {
 8002458:	4b14      	ldr	r3, [pc, #80]	@ (80024ac <EXTI9_5_IRQHandler+0x60>)
 800245a:	695b      	ldr	r3, [r3, #20]
 800245c:	2101      	movs	r1, #1
 800245e:	687a      	ldr	r2, [r7, #4]
 8002460:	fa01 f202 	lsl.w	r2, r1, r2
 8002464:	4013      	ands	r3, r2
 8002466:	2b00      	cmp	r3, #0
 8002468:	d014      	beq.n	8002494 <EXTI9_5_IRQHandler+0x48>
 800246a:	4a11      	ldr	r2, [pc, #68]	@ (80024b0 <EXTI9_5_IRQHandler+0x64>)
 800246c:	687b      	ldr	r3, [r7, #4]
 800246e:	f852 3023 	ldr.w	r3, [r2, r3, lsl #2]
 8002472:	2b00      	cmp	r3, #0
 8002474:	d00e      	beq.n	8002494 <EXTI9_5_IRQHandler+0x48>
            EXTI_ISR[i]();        // Invoke callback for pin `i`
 8002476:	4a0e      	ldr	r2, [pc, #56]	@ (80024b0 <EXTI9_5_IRQHandler+0x64>)
 8002478:	687b      	ldr	r3, [r7, #4]
 800247a:	f852 3023 	ldr.w	r3, [r2, r3, lsl #2]
 800247e:	4798      	blx	r3
            EXTI->PR |= (1 << i); // Clear interrupt flag
 8002480:	4b0a      	ldr	r3, [pc, #40]	@ (80024ac <EXTI9_5_IRQHandler+0x60>)
 8002482:	695b      	ldr	r3, [r3, #20]
 8002484:	2101      	movs	r1, #1
 8002486:	687a      	ldr	r2, [r7, #4]
 8002488:	fa01 f202 	lsl.w	r2, r1, r2
 800248c:	4611      	mov	r1, r2
 800248e:	4a07      	ldr	r2, [pc, #28]	@ (80024ac <EXTI9_5_IRQHandler+0x60>)
 8002490:	430b      	orrs	r3, r1
 8002492:	6153      	str	r3, [r2, #20]
    for (int i = 5; i <= 9; ++i) {
 8002494:	687b      	ldr	r3, [r7, #4]
 8002496:	3301      	adds	r3, #1
 8002498:	607b      	str	r3, [r7, #4]
 800249a:	687b      	ldr	r3, [r7, #4]
 800249c:	2b09      	cmp	r3, #9
 800249e:	dddb      	ble.n	8002458 <EXTI9_5_IRQHandler+0xc>
        }
    }
}
 80024a0:	bf00      	nop
 80024a2:	bf00      	nop
 80024a4:	3708      	adds	r7, #8
 80024a6:	46bd      	mov	sp, r7
 80024a8:	bd80      	pop	{r7, pc}
 80024aa:	bf00      	nop
 80024ac:	40013c00 	.word	0x40013c00
 80024b0:	20000290 	.word	0x20000290

080024b4 <EXTI15_10_IRQHandler>:
/**
 * @brief Interrupt handler for EXTI lines 10 to 15.
 *
 * Handles interrupts for pins 10 to 15, checking each pin for active flags.
 */
void EXTI15_10_IRQHandler(void) {
 80024b4:	b580      	push	{r7, lr}
 80024b6:	b082      	sub	sp, #8
 80024b8:	af00      	add	r7, sp, #0
    for (int i = 10; i <= 15; ++i) {
 80024ba:	230a      	movs	r3, #10
 80024bc:	607b      	str	r3, [r7, #4]
 80024be:	e020      	b.n	8002502 <EXTI15_10_IRQHandler+0x4e>
        if ((EXTI->PR & (1 << i)) && EXTI_ISR[i]) {
 80024c0:	4b14      	ldr	r3, [pc, #80]	@ (8002514 <EXTI15_10_IRQHandler+0x60>)
 80024c2:	695b      	ldr	r3, [r3, #20]
 80024c4:	2101      	movs	r1, #1
 80024c6:	687a      	ldr	r2, [r7, #4]
 80024c8:	fa01 f202 	lsl.w	r2, r1, r2
 80024cc:	4013      	ands	r3, r2
 80024ce:	2b00      	cmp	r3, #0
 80024d0:	d014      	beq.n	80024fc <EXTI15_10_IRQHandler+0x48>
 80024d2:	4a11      	ldr	r2, [pc, #68]	@ (8002518 <EXTI15_10_IRQHandler+0x64>)
 80024d4:	687b      	ldr	r3, [r7, #4]
 80024d6:	f852 3023 	ldr.w	r3, [r2, r3, lsl #2]
 80024da:	2b00      	cmp	r3, #0
 80024dc:	d00e      	beq.n	80024fc <EXTI15_10_IRQHandler+0x48>
            EXTI_ISR[i]();        // Invoke callback for pin `i`
 80024de:	4a0e      	ldr	r2, [pc, #56]	@ (8002518 <EXTI15_10_IRQHandler+0x64>)
 80024e0:	687b      	ldr	r3, [r7, #4]
 80024e2:	f852 3023 	ldr.w	r3, [r2, r3, lsl #2]
 80024e6:	4798      	blx	r3
            EXTI->PR |= (1 << i); // Clear interrupt flag
 80024e8:	4b0a      	ldr	r3, [pc, #40]	@ (8002514 <EXTI15_10_IRQHandler+0x60>)
 80024ea:	695b      	ldr	r3, [r3, #20]
 80024ec:	2101      	movs	r1, #1
 80024ee:	687a      	ldr	r2, [r7, #4]
 80024f0:	fa01 f202 	lsl.w	r2, r1, r2
 80024f4:	4611      	mov	r1, r2
 80024f6:	4a07      	ldr	r2, [pc, #28]	@ (8002514 <EXTI15_10_IRQHandler+0x60>)
 80024f8:	430b      	orrs	r3, r1
 80024fa:	6153      	str	r3, [r2, #20]
    for (int i = 10; i <= 15; ++i) {
 80024fc:	687b      	ldr	r3, [r7, #4]
 80024fe:	3301      	adds	r3, #1
 8002500:	607b      	str	r3, [r7, #4]
 8002502:	687b      	ldr	r3, [r7, #4]
 8002504:	2b0f      	cmp	r3, #15
 8002506:	dddb      	ble.n	80024c0 <EXTI15_10_IRQHandler+0xc>
        }
    }
}
 8002508:	bf00      	nop
 800250a:	bf00      	nop
 800250c:	3708      	adds	r7, #8
 800250e:	46bd      	mov	sp, r7
 8002510:	bd80      	pop	{r7, pc}
 8002512:	bf00      	nop
 8002514:	40013c00 	.word	0x40013c00
 8002518:	20000290 	.word	0x20000290

0800251c <GPIO_Clock_Enable>:
 * @brief Enables the clock for a specific GPIO port.
 *
 * @param PORT Pointer to GPIO port base address.
 * @return GPIO_SUCCESS on success, GPIO_INVALID_PORT on failure.
 */
int GPIO_Clock_Enable(GPIO_TypeDef *PORT) {
 800251c:	b480      	push	{r7}
 800251e:	b083      	sub	sp, #12
 8002520:	af00      	add	r7, sp, #0
 8002522:	6078      	str	r0, [r7, #4]
    switch ((uint32_t)PORT) {
 8002524:	687b      	ldr	r3, [r7, #4]
 8002526:	4a30      	ldr	r2, [pc, #192]	@ (80025e8 <GPIO_Clock_Enable+0xcc>)
 8002528:	4293      	cmp	r3, r2
 800252a:	d04b      	beq.n	80025c4 <GPIO_Clock_Enable+0xa8>
 800252c:	4a2e      	ldr	r2, [pc, #184]	@ (80025e8 <GPIO_Clock_Enable+0xcc>)
 800252e:	4293      	cmp	r3, r2
 8002530:	d84f      	bhi.n	80025d2 <GPIO_Clock_Enable+0xb6>
 8002532:	4a2e      	ldr	r2, [pc, #184]	@ (80025ec <GPIO_Clock_Enable+0xd0>)
 8002534:	4293      	cmp	r3, r2
 8002536:	d03e      	beq.n	80025b6 <GPIO_Clock_Enable+0x9a>
 8002538:	4a2c      	ldr	r2, [pc, #176]	@ (80025ec <GPIO_Clock_Enable+0xd0>)
 800253a:	4293      	cmp	r3, r2
 800253c:	d849      	bhi.n	80025d2 <GPIO_Clock_Enable+0xb6>
 800253e:	4a2c      	ldr	r2, [pc, #176]	@ (80025f0 <GPIO_Clock_Enable+0xd4>)
 8002540:	4293      	cmp	r3, r2
 8002542:	d031      	beq.n	80025a8 <GPIO_Clock_Enable+0x8c>
 8002544:	4a2a      	ldr	r2, [pc, #168]	@ (80025f0 <GPIO_Clock_Enable+0xd4>)
 8002546:	4293      	cmp	r3, r2
 8002548:	d843      	bhi.n	80025d2 <GPIO_Clock_Enable+0xb6>
 800254a:	4a2a      	ldr	r2, [pc, #168]	@ (80025f4 <GPIO_Clock_Enable+0xd8>)
 800254c:	4293      	cmp	r3, r2
 800254e:	d024      	beq.n	800259a <GPIO_Clock_Enable+0x7e>
 8002550:	4a28      	ldr	r2, [pc, #160]	@ (80025f4 <GPIO_Clock_Enable+0xd8>)
 8002552:	4293      	cmp	r3, r2
 8002554:	d83d      	bhi.n	80025d2 <GPIO_Clock_Enable+0xb6>
 8002556:	4a28      	ldr	r2, [pc, #160]	@ (80025f8 <GPIO_Clock_Enable+0xdc>)
 8002558:	4293      	cmp	r3, r2
 800255a:	d017      	beq.n	800258c <GPIO_Clock_Enable+0x70>
 800255c:	4a26      	ldr	r2, [pc, #152]	@ (80025f8 <GPIO_Clock_Enable+0xdc>)
 800255e:	4293      	cmp	r3, r2
 8002560:	d837      	bhi.n	80025d2 <GPIO_Clock_Enable+0xb6>
 8002562:	4a26      	ldr	r2, [pc, #152]	@ (80025fc <GPIO_Clock_Enable+0xe0>)
 8002564:	4293      	cmp	r3, r2
 8002566:	d003      	beq.n	8002570 <GPIO_Clock_Enable+0x54>
 8002568:	4a25      	ldr	r2, [pc, #148]	@ (8002600 <GPIO_Clock_Enable+0xe4>)
 800256a:	4293      	cmp	r3, r2
 800256c:	d007      	beq.n	800257e <GPIO_Clock_Enable+0x62>
 800256e:	e030      	b.n	80025d2 <GPIO_Clock_Enable+0xb6>
        case (uint32_t)GPIOA: RCC->AHB1ENR |= RCC_AHB1ENR_GPIOAEN; break;
 8002570:	4b24      	ldr	r3, [pc, #144]	@ (8002604 <GPIO_Clock_Enable+0xe8>)
 8002572:	6b1b      	ldr	r3, [r3, #48]	@ 0x30
 8002574:	4a23      	ldr	r2, [pc, #140]	@ (8002604 <GPIO_Clock_Enable+0xe8>)
 8002576:	f043 0301 	orr.w	r3, r3, #1
 800257a:	6313      	str	r3, [r2, #48]	@ 0x30
 800257c:	e02c      	b.n	80025d8 <GPIO_Clock_Enable+0xbc>
        case (uint32_t)GPIOB: RCC->AHB1ENR |= RCC_AHB1ENR_GPIOBEN; break;
 800257e:	4b21      	ldr	r3, [pc, #132]	@ (8002604 <GPIO_Clock_Enable+0xe8>)
 8002580:	6b1b      	ldr	r3, [r3, #48]	@ 0x30
 8002582:	4a20      	ldr	r2, [pc, #128]	@ (8002604 <GPIO_Clock_Enable+0xe8>)
 8002584:	f043 0302 	orr.w	r3, r3, #2
 8002588:	6313      	str	r3, [r2, #48]	@ 0x30
 800258a:	e025      	b.n	80025d8 <GPIO_Clock_Enable+0xbc>
        case (uint32_t)GPIOC: RCC->AHB1ENR |= RCC_AHB1ENR_GPIOCEN; break;
 800258c:	4b1d      	ldr	r3, [pc, #116]	@ (8002604 <GPIO_Clock_Enable+0xe8>)
 800258e:	6b1b      	ldr	r3, [r3, #48]	@ 0x30
 8002590:	4a1c      	ldr	r2, [pc, #112]	@ (8002604 <GPIO_Clock_Enable+0xe8>)
 8002592:	f043 0304 	orr.w	r3, r3, #4
 8002596:	6313      	str	r3, [r2, #48]	@ 0x30
 8002598:	e01e      	b.n	80025d8 <GPIO_Clock_Enable+0xbc>
        case (uint32_t)GPIOD: RCC->AHB1ENR |= RCC_AHB1ENR_GPIODEN; break;
 800259a:	4b1a      	ldr	r3, [pc, #104]	@ (8002604 <GPIO_Clock_Enable+0xe8>)
 800259c:	6b1b      	ldr	r3, [r3, #48]	@ 0x30
 800259e:	4a19      	ldr	r2, [pc, #100]	@ (8002604 <GPIO_Clock_Enable+0xe8>)
 80025a0:	f043 0308 	orr.w	r3, r3, #8
 80025a4:	6313      	str	r3, [r2, #48]	@ 0x30
 80025a6:	e017      	b.n	80025d8 <GPIO_Clock_Enable+0xbc>
        case (uint32_t)GPIOE: RCC->AHB1ENR |= RCC_AHB1ENR_GPIOEEN; break;
 80025a8:	4b16      	ldr	r3, [pc, #88]	@ (8002604 <GPIO_Clock_Enable+0xe8>)
 80025aa:	6b1b      	ldr	r3, [r3, #48]	@ 0x30
 80025ac:	4a15      	ldr	r2, [pc, #84]	@ (8002604 <GPIO_Clock_Enable+0xe8>)
 80025ae:	f043 0310 	orr.w	r3, r3, #16
 80025b2:	6313      	str	r3, [r2, #48]	@ 0x30
 80025b4:	e010      	b.n	80025d8 <GPIO_Clock_Enable+0xbc>
        case (uint32_t)GPIOF: RCC->AHB1ENR |= RCC_AHB1ENR_GPIOFEN; break;
 80025b6:	4b13      	ldr	r3, [pc, #76]	@ (8002604 <GPIO_Clock_Enable+0xe8>)
 80025b8:	6b1b      	ldr	r3, [r3, #48]	@ 0x30
 80025ba:	4a12      	ldr	r2, [pc, #72]	@ (8002604 <GPIO_Clock_Enable+0xe8>)
 80025bc:	f043 0320 	orr.w	r3, r3, #32
 80025c0:	6313      	str	r3, [r2, #48]	@ 0x30
 80025c2:	e009      	b.n	80025d8 <GPIO_Clock_Enable+0xbc>
        case (uint32_t)GPIOH: RCC->AHB1ENR |= RCC_AHB1ENR_GPIOHEN; break;
 80025c4:	4b0f      	ldr	r3, [pc, #60]	@ (8002604 <GPIO_Clock_Enable+0xe8>)
 80025c6:	6b1b      	ldr	r3, [r3, #48]	@ 0x30
 80025c8:	4a0e      	ldr	r2, [pc, #56]	@ (8002604 <GPIO_Clock_Enable+0xe8>)
 80025ca:	f043 0380 	orr.w	r3, r3, #128	@ 0x80
 80025ce:	6313      	str	r3, [r2, #48]	@ 0x30
 80025d0:	e002      	b.n	80025d8 <GPIO_Clock_Enable+0xbc>
        default: return GPIO_INVALID_PORT;
 80025d2:	f04f 33ff 	mov.w	r3, #4294967295
 80025d6:	e000      	b.n	80025da <GPIO_Clock_Enable+0xbe>
    }
    return GPIO_SUCCESS;
 80025d8:	2300      	movs	r3, #0
}
 80025da:	4618      	mov	r0, r3
 80025dc:	370c      	adds	r7, #12
 80025de:	46bd      	mov	sp, r7
 80025e0:	f85d 7b04 	ldr.w	r7, [sp], #4
 80025e4:	4770      	bx	lr
 80025e6:	bf00      	nop
 80025e8:	40021c00 	.word	0x40021c00
 80025ec:	40021400 	.word	0x40021400
 80025f0:	40021000 	.word	0x40021000
 80025f4:	40020c00 	.word	0x40020c00
 80025f8:	40020800 	.word	0x40020800
 80025fc:	40020000 	.word	0x40020000
 8002600:	40020400 	.word	0x40020400
 8002604:	40023800 	.word	0x40023800

08002608 <GPIO_Pin_Init>:


GPIO_Status GPIO_Pin_Init(GPIO_TypeDef *Port, uint8_t pin, uint8_t mode, uint8_t output_type, uint8_t speed, uint8_t pull, uint8_t alternate_function) {
 8002608:	b580      	push	{r7, lr}
 800260a:	b082      	sub	sp, #8
 800260c:	af00      	add	r7, sp, #0
 800260e:	6078      	str	r0, [r7, #4]
 8002610:	4608      	mov	r0, r1
 8002612:	4611      	mov	r1, r2
 8002614:	461a      	mov	r2, r3
 8002616:	4603      	mov	r3, r0
 8002618:	70fb      	strb	r3, [r7, #3]
 800261a:	460b      	mov	r3, r1
 800261c:	70bb      	strb	r3, [r7, #2]
 800261e:	4613      	mov	r3, r2
 8002620:	707b      	strb	r3, [r7, #1]
//    if (pin > 15 || mode > 3 || speed > 3 || pull > 2) return GPIO_INVALID_PIN;

    GPIO_Clock_Enable(Port);
 8002622:	6878      	ldr	r0, [r7, #4]
 8002624:	f7ff ff7a 	bl	800251c <GPIO_Clock_Enable>

    // Reset and set mode
    Port->MODER &= ~(3 << PIN_POS(pin));
 8002628:	687b      	ldr	r3, [r7, #4]
 800262a:	681b      	ldr	r3, [r3, #0]
 800262c:	78fa      	ldrb	r2, [r7, #3]
 800262e:	0052      	lsls	r2, r2, #1
 8002630:	2103      	movs	r1, #3
 8002632:	fa01 f202 	lsl.w	r2, r1, r2
 8002636:	43d2      	mvns	r2, r2
 8002638:	401a      	ands	r2, r3
 800263a:	687b      	ldr	r3, [r7, #4]
 800263c:	601a      	str	r2, [r3, #0]
    Port->MODER |= mode << PIN_POS(pin);
 800263e:	687b      	ldr	r3, [r7, #4]
 8002640:	681b      	ldr	r3, [r3, #0]
 8002642:	78b9      	ldrb	r1, [r7, #2]
 8002644:	78fa      	ldrb	r2, [r7, #3]
 8002646:	0052      	lsls	r2, r2, #1
 8002648:	fa01 f202 	lsl.w	r2, r1, r2
 800264c:	431a      	orrs	r2, r3
 800264e:	687b      	ldr	r3, [r7, #4]
 8002650:	601a      	str	r2, [r3, #0]

    // Reset and set output type
    Port->OTYPER &= ~(1 << pin);
 8002652:	687b      	ldr	r3, [r7, #4]
 8002654:	685b      	ldr	r3, [r3, #4]
 8002656:	78fa      	ldrb	r2, [r7, #3]
 8002658:	2101      	movs	r1, #1
 800265a:	fa01 f202 	lsl.w	r2, r1, r2
 800265e:	43d2      	mvns	r2, r2
 8002660:	401a      	ands	r2, r3
 8002662:	687b      	ldr	r3, [r7, #4]
 8002664:	605a      	str	r2, [r3, #4]
    if (output_type != GPIO_Configuration.Output_Type.None) {
 8002666:	2202      	movs	r2, #2
 8002668:	787b      	ldrb	r3, [r7, #1]
 800266a:	4293      	cmp	r3, r2
 800266c:	d008      	beq.n	8002680 <GPIO_Pin_Init+0x78>
        Port->OTYPER |= output_type << pin;
 800266e:	687b      	ldr	r3, [r7, #4]
 8002670:	685b      	ldr	r3, [r3, #4]
 8002672:	7879      	ldrb	r1, [r7, #1]
 8002674:	78fa      	ldrb	r2, [r7, #3]
 8002676:	fa01 f202 	lsl.w	r2, r1, r2
 800267a:	431a      	orrs	r2, r3
 800267c:	687b      	ldr	r3, [r7, #4]
 800267e:	605a      	str	r2, [r3, #4]
    }

    // Reset and set speed
    Port->OSPEEDR &= ~(3 << PIN_POS(pin));
 8002680:	687b      	ldr	r3, [r7, #4]
 8002682:	689b      	ldr	r3, [r3, #8]
 8002684:	78fa      	ldrb	r2, [r7, #3]
 8002686:	0052      	lsls	r2, r2, #1
 8002688:	2103      	movs	r1, #3
 800268a:	fa01 f202 	lsl.w	r2, r1, r2
 800268e:	43d2      	mvns	r2, r2
 8002690:	401a      	ands	r2, r3
 8002692:	687b      	ldr	r3, [r7, #4]
 8002694:	609a      	str	r2, [r3, #8]
    if (speed != GPIO_Configuration.Speed.None) {
 8002696:	2204      	movs	r2, #4
 8002698:	7c3b      	ldrb	r3, [r7, #16]
 800269a:	4293      	cmp	r3, r2
 800269c:	d009      	beq.n	80026b2 <GPIO_Pin_Init+0xaa>
        Port->OSPEEDR |= speed << PIN_POS(pin);
 800269e:	687b      	ldr	r3, [r7, #4]
 80026a0:	689b      	ldr	r3, [r3, #8]
 80026a2:	7c39      	ldrb	r1, [r7, #16]
 80026a4:	78fa      	ldrb	r2, [r7, #3]
 80026a6:	0052      	lsls	r2, r2, #1
 80026a8:	fa01 f202 	lsl.w	r2, r1, r2
 80026ac:	431a      	orrs	r2, r3
 80026ae:	687b      	ldr	r3, [r7, #4]
 80026b0:	609a      	str	r2, [r3, #8]
    }

    // Reset and set pull-up/pull-down
    Port->PUPDR &= ~(3 << PIN_POS(pin));
 80026b2:	687b      	ldr	r3, [r7, #4]
 80026b4:	68db      	ldr	r3, [r3, #12]
 80026b6:	78fa      	ldrb	r2, [r7, #3]
 80026b8:	0052      	lsls	r2, r2, #1
 80026ba:	2103      	movs	r1, #3
 80026bc:	fa01 f202 	lsl.w	r2, r1, r2
 80026c0:	43d2      	mvns	r2, r2
 80026c2:	401a      	ands	r2, r3
 80026c4:	687b      	ldr	r3, [r7, #4]
 80026c6:	60da      	str	r2, [r3, #12]
    if (pull != GPIO_Configuration.Pull.None) {
 80026c8:	2204      	movs	r2, #4
 80026ca:	7d3b      	ldrb	r3, [r7, #20]
 80026cc:	4293      	cmp	r3, r2
 80026ce:	d009      	beq.n	80026e4 <GPIO_Pin_Init+0xdc>
        Port->PUPDR |= pull << PIN_POS(pin);
 80026d0:	687b      	ldr	r3, [r7, #4]
 80026d2:	68db      	ldr	r3, [r3, #12]
 80026d4:	7d39      	ldrb	r1, [r7, #20]
 80026d6:	78fa      	ldrb	r2, [r7, #3]
 80026d8:	0052      	lsls	r2, r2, #1
 80026da:	fa01 f202 	lsl.w	r2, r1, r2
 80026de:	431a      	orrs	r2, r3
 80026e0:	687b      	ldr	r3, [r7, #4]
 80026e2:	60da      	str	r2, [r3, #12]
    }

    // Set alternate function
    if (mode == GPIO_Configuration.Mode.Alternate_Function) {
 80026e4:	2202      	movs	r2, #2
 80026e6:	78bb      	ldrb	r3, [r7, #2]
 80026e8:	4293      	cmp	r3, r2
 80026ea:	d12f      	bne.n	800274c <GPIO_Pin_Init+0x144>
        if (pin < GPIO_AF_SPLIT_POINT) {
 80026ec:	78fb      	ldrb	r3, [r7, #3]
 80026ee:	2b07      	cmp	r3, #7
 80026f0:	d815      	bhi.n	800271e <GPIO_Pin_Init+0x116>
            Port->AFR[0] &= ~(0xF << (pin * 4));
 80026f2:	687b      	ldr	r3, [r7, #4]
 80026f4:	6a1b      	ldr	r3, [r3, #32]
 80026f6:	78fa      	ldrb	r2, [r7, #3]
 80026f8:	0092      	lsls	r2, r2, #2
 80026fa:	210f      	movs	r1, #15
 80026fc:	fa01 f202 	lsl.w	r2, r1, r2
 8002700:	43d2      	mvns	r2, r2
 8002702:	401a      	ands	r2, r3
 8002704:	687b      	ldr	r3, [r7, #4]
 8002706:	621a      	str	r2, [r3, #32]
            Port->AFR[0] |= alternate_function << (pin * 4);
 8002708:	687b      	ldr	r3, [r7, #4]
 800270a:	6a1b      	ldr	r3, [r3, #32]
 800270c:	7e39      	ldrb	r1, [r7, #24]
 800270e:	78fa      	ldrb	r2, [r7, #3]
 8002710:	0092      	lsls	r2, r2, #2
 8002712:	fa01 f202 	lsl.w	r2, r1, r2
 8002716:	431a      	orrs	r2, r3
 8002718:	687b      	ldr	r3, [r7, #4]
 800271a:	621a      	str	r2, [r3, #32]
 800271c:	e016      	b.n	800274c <GPIO_Pin_Init+0x144>
        } else {
            Port->AFR[1] &= ~(0xF << ((pin - GPIO_AF_SPLIT_POINT) * 4));
 800271e:	687b      	ldr	r3, [r7, #4]
 8002720:	6a5b      	ldr	r3, [r3, #36]	@ 0x24
 8002722:	78fa      	ldrb	r2, [r7, #3]
 8002724:	3a08      	subs	r2, #8
 8002726:	0092      	lsls	r2, r2, #2
 8002728:	210f      	movs	r1, #15
 800272a:	fa01 f202 	lsl.w	r2, r1, r2
 800272e:	43d2      	mvns	r2, r2
 8002730:	401a      	ands	r2, r3
 8002732:	687b      	ldr	r3, [r7, #4]
 8002734:	625a      	str	r2, [r3, #36]	@ 0x24
            Port->AFR[1] |= alternate_function << ((pin - GPIO_AF_SPLIT_POINT) * 4);
 8002736:	687b      	ldr	r3, [r7, #4]
 8002738:	6a5b      	ldr	r3, [r3, #36]	@ 0x24
 800273a:	7e39      	ldrb	r1, [r7, #24]
 800273c:	78fa      	ldrb	r2, [r7, #3]
 800273e:	3a08      	subs	r2, #8
 8002740:	0092      	lsls	r2, r2, #2
 8002742:	fa01 f202 	lsl.w	r2, r1, r2
 8002746:	431a      	orrs	r2, r3
 8002748:	687b      	ldr	r3, [r7, #4]
 800274a:	625a      	str	r2, [r3, #36]	@ 0x24
        }
    }

    return GPIO_SUCCESS;
 800274c:	2300      	movs	r3, #0
}
 800274e:	4618      	mov	r0, r3
 8002750:	3708      	adds	r7, #8
 8002752:	46bd      	mov	sp, r7
 8002754:	bd80      	pop	{r7, pc}
	...

08002758 <pin_setup>:
DMA_Config xI2C1_RX;
DMA_Config xI2C2_RX;
DMA_Config xI2C3_RX;

static void pin_setup(I2C_Config *config)
{
 8002758:	b590      	push	{r4, r7, lr}
 800275a:	b087      	sub	sp, #28
 800275c:	af04      	add	r7, sp, #16
 800275e:	6078      	str	r0, [r7, #4]
	if(config->Port == I2C1)
 8002760:	687b      	ldr	r3, [r7, #4]
 8002762:	681b      	ldr	r3, [r3, #0]
 8002764:	4a5a      	ldr	r2, [pc, #360]	@ (80028d0 <pin_setup+0x178>)
 8002766:	4293      	cmp	r3, r2
 8002768:	d152      	bne.n	8002810 <pin_setup+0xb8>
	{
		if(config->SCL_Pin == I2C_Configuration.Pin.__I2C1__.SCL.PB6) GPIO_Pin_Init(GPIOB, 6, GPIO_Configuration.Mode.Alternate_Function, GPIO_Configuration.Output_Type.Open_Drain, GPIO_Configuration.Speed.Very_High_Speed, GPIO_Configuration.Pull.Pull_Up, GPIO_Configuration.Alternate_Functions.I2C_1);
 800276a:	687b      	ldr	r3, [r7, #4]
 800276c:	791b      	ldrb	r3, [r3, #4]
 800276e:	461a      	mov	r2, r3
 8002770:	23ce      	movs	r3, #206	@ 0xce
 8002772:	429a      	cmp	r2, r3
 8002774:	d10e      	bne.n	8002794 <pin_setup+0x3c>
 8002776:	2002      	movs	r0, #2
 8002778:	2401      	movs	r4, #1
 800277a:	2303      	movs	r3, #3
 800277c:	2201      	movs	r2, #1
 800277e:	2104      	movs	r1, #4
 8002780:	9102      	str	r1, [sp, #8]
 8002782:	9201      	str	r2, [sp, #4]
 8002784:	9300      	str	r3, [sp, #0]
 8002786:	4623      	mov	r3, r4
 8002788:	4602      	mov	r2, r0
 800278a:	2106      	movs	r1, #6
 800278c:	4851      	ldr	r0, [pc, #324]	@ (80028d4 <pin_setup+0x17c>)
 800278e:	f7ff ff3b 	bl	8002608 <GPIO_Pin_Init>
 8002792:	e013      	b.n	80027bc <pin_setup+0x64>
		else if(config->SCL_Pin == I2C_Configuration.Pin.__I2C1__.SCL.PB8) GPIO_Pin_Init(GPIOB, 8, GPIO_Configuration.Mode.Alternate_Function, GPIO_Configuration.Output_Type.Open_Drain, GPIO_Configuration.Speed.Very_High_Speed, GPIO_Configuration.Pull.Pull_Up, GPIO_Configuration.Alternate_Functions.I2C_1);
 8002794:	687b      	ldr	r3, [r7, #4]
 8002796:	791b      	ldrb	r3, [r3, #4]
 8002798:	461a      	mov	r2, r3
 800279a:	23d0      	movs	r3, #208	@ 0xd0
 800279c:	429a      	cmp	r2, r3
 800279e:	d10d      	bne.n	80027bc <pin_setup+0x64>
 80027a0:	2002      	movs	r0, #2
 80027a2:	2401      	movs	r4, #1
 80027a4:	2303      	movs	r3, #3
 80027a6:	2201      	movs	r2, #1
 80027a8:	2104      	movs	r1, #4
 80027aa:	9102      	str	r1, [sp, #8]
 80027ac:	9201      	str	r2, [sp, #4]
 80027ae:	9300      	str	r3, [sp, #0]
 80027b0:	4623      	mov	r3, r4
 80027b2:	4602      	mov	r2, r0
 80027b4:	2108      	movs	r1, #8
 80027b6:	4847      	ldr	r0, [pc, #284]	@ (80028d4 <pin_setup+0x17c>)
 80027b8:	f7ff ff26 	bl	8002608 <GPIO_Pin_Init>

		if(config->SDA_Pin == I2C_Configuration.Pin.__I2C1__.SDA.PB7) GPIO_Pin_Init(GPIOB, 7, GPIO_Configuration.Mode.Alternate_Function, GPIO_Configuration.Output_Type.Open_Drain, GPIO_Configuration.Speed.Very_High_Speed, GPIO_Configuration.Pull.Pull_Up, GPIO_Configuration.Alternate_Functions.I2C_1);
 80027bc:	687b      	ldr	r3, [r7, #4]
 80027be:	795b      	ldrb	r3, [r3, #5]
 80027c0:	461a      	mov	r2, r3
 80027c2:	23cf      	movs	r3, #207	@ 0xcf
 80027c4:	429a      	cmp	r2, r3
 80027c6:	d10e      	bne.n	80027e6 <pin_setup+0x8e>
 80027c8:	2002      	movs	r0, #2
 80027ca:	2401      	movs	r4, #1
 80027cc:	2303      	movs	r3, #3
 80027ce:	2201      	movs	r2, #1
 80027d0:	2104      	movs	r1, #4
 80027d2:	9102      	str	r1, [sp, #8]
 80027d4:	9201      	str	r2, [sp, #4]
 80027d6:	9300      	str	r3, [sp, #0]
 80027d8:	4623      	mov	r3, r4
 80027da:	4602      	mov	r2, r0
 80027dc:	2107      	movs	r1, #7
 80027de:	483d      	ldr	r0, [pc, #244]	@ (80028d4 <pin_setup+0x17c>)
 80027e0:	f7ff ff12 	bl	8002608 <GPIO_Pin_Init>
	else if(config->Port == I2C3)
	{
		if(config->SCL_Pin == I2C_Configuration.Pin.__I2C3__.SCL.PA8) GPIO_Pin_Init(GPIOA, 8, GPIO_Configuration.Mode.Alternate_Function, GPIO_Configuration.Output_Type.Open_Drain, GPIO_Configuration.Speed.Very_High_Speed, GPIO_Configuration.Pull.Pull_Up, GPIO_Configuration.Alternate_Functions.I2C_3);
		if(config->SDA_Pin == I2C_Configuration.Pin.__I2C3__.SDA.PC9) GPIO_Pin_Init(GPIOC, 9, GPIO_Configuration.Mode.Alternate_Function, GPIO_Configuration.Output_Type.Open_Drain, GPIO_Configuration.Speed.Very_High_Speed, GPIO_Configuration.Pull.Pull_Up, GPIO_Configuration.Alternate_Functions.I2C_3);
	}
}
 80027e4:	e070      	b.n	80028c8 <pin_setup+0x170>
		else if(config->SDA_Pin == I2C_Configuration.Pin.__I2C1__.SDA.PB9) GPIO_Pin_Init(GPIOB, 9, GPIO_Configuration.Mode.Alternate_Function, GPIO_Configuration.Output_Type.Open_Drain, GPIO_Configuration.Speed.Very_High_Speed, GPIO_Configuration.Pull.Pull_Up, GPIO_Configuration.Alternate_Functions.I2C_1);
 80027e6:	687b      	ldr	r3, [r7, #4]
 80027e8:	795b      	ldrb	r3, [r3, #5]
 80027ea:	461a      	mov	r2, r3
 80027ec:	23d1      	movs	r3, #209	@ 0xd1
 80027ee:	429a      	cmp	r2, r3
 80027f0:	d16a      	bne.n	80028c8 <pin_setup+0x170>
 80027f2:	2002      	movs	r0, #2
 80027f4:	2401      	movs	r4, #1
 80027f6:	2303      	movs	r3, #3
 80027f8:	2201      	movs	r2, #1
 80027fa:	2104      	movs	r1, #4
 80027fc:	9102      	str	r1, [sp, #8]
 80027fe:	9201      	str	r2, [sp, #4]
 8002800:	9300      	str	r3, [sp, #0]
 8002802:	4623      	mov	r3, r4
 8002804:	4602      	mov	r2, r0
 8002806:	2109      	movs	r1, #9
 8002808:	4832      	ldr	r0, [pc, #200]	@ (80028d4 <pin_setup+0x17c>)
 800280a:	f7ff fefd 	bl	8002608 <GPIO_Pin_Init>
}
 800280e:	e05b      	b.n	80028c8 <pin_setup+0x170>
	else if(config->Port == I2C2)
 8002810:	687b      	ldr	r3, [r7, #4]
 8002812:	681b      	ldr	r3, [r3, #0]
 8002814:	4a30      	ldr	r2, [pc, #192]	@ (80028d8 <pin_setup+0x180>)
 8002816:	4293      	cmp	r3, r2
 8002818:	d128      	bne.n	800286c <pin_setup+0x114>
		if(config->SCL_Pin == I2C_Configuration.Pin.__I2C2__.SCL.PB10) GPIO_Pin_Init(GPIOB, 10, GPIO_Configuration.Mode.Alternate_Function, GPIO_Configuration.Output_Type.Open_Drain, GPIO_Configuration.Speed.Very_High_Speed, GPIO_Configuration.Pull.Pull_Up, GPIO_Configuration.Alternate_Functions.I2C_2);
 800281a:	687b      	ldr	r3, [r7, #4]
 800281c:	791b      	ldrb	r3, [r3, #4]
 800281e:	461a      	mov	r2, r3
 8002820:	23d3      	movs	r3, #211	@ 0xd3
 8002822:	429a      	cmp	r2, r3
 8002824:	d10d      	bne.n	8002842 <pin_setup+0xea>
 8002826:	2002      	movs	r0, #2
 8002828:	2401      	movs	r4, #1
 800282a:	2303      	movs	r3, #3
 800282c:	2201      	movs	r2, #1
 800282e:	2104      	movs	r1, #4
 8002830:	9102      	str	r1, [sp, #8]
 8002832:	9201      	str	r2, [sp, #4]
 8002834:	9300      	str	r3, [sp, #0]
 8002836:	4623      	mov	r3, r4
 8002838:	4602      	mov	r2, r0
 800283a:	210a      	movs	r1, #10
 800283c:	4825      	ldr	r0, [pc, #148]	@ (80028d4 <pin_setup+0x17c>)
 800283e:	f7ff fee3 	bl	8002608 <GPIO_Pin_Init>
		if(config->SDA_Pin == I2C_Configuration.Pin.__I2C2__.SDA.PB11) GPIO_Pin_Init(GPIOB, 11, GPIO_Configuration.Mode.Alternate_Function, GPIO_Configuration.Output_Type.Open_Drain, GPIO_Configuration.Speed.Very_High_Speed, GPIO_Configuration.Pull.Pull_Up, GPIO_Configuration.Alternate_Functions.I2C_2);
 8002842:	687b      	ldr	r3, [r7, #4]
 8002844:	795b      	ldrb	r3, [r3, #5]
 8002846:	461a      	mov	r2, r3
 8002848:	23d2      	movs	r3, #210	@ 0xd2
 800284a:	429a      	cmp	r2, r3
 800284c:	d13c      	bne.n	80028c8 <pin_setup+0x170>
 800284e:	2002      	movs	r0, #2
 8002850:	2401      	movs	r4, #1
 8002852:	2303      	movs	r3, #3
 8002854:	2201      	movs	r2, #1
 8002856:	2104      	movs	r1, #4
 8002858:	9102      	str	r1, [sp, #8]
 800285a:	9201      	str	r2, [sp, #4]
 800285c:	9300      	str	r3, [sp, #0]
 800285e:	4623      	mov	r3, r4
 8002860:	4602      	mov	r2, r0
 8002862:	210b      	movs	r1, #11
 8002864:	481b      	ldr	r0, [pc, #108]	@ (80028d4 <pin_setup+0x17c>)
 8002866:	f7ff fecf 	bl	8002608 <GPIO_Pin_Init>
}
 800286a:	e02d      	b.n	80028c8 <pin_setup+0x170>
	else if(config->Port == I2C3)
 800286c:	687b      	ldr	r3, [r7, #4]
 800286e:	681b      	ldr	r3, [r3, #0]
 8002870:	4a1a      	ldr	r2, [pc, #104]	@ (80028dc <pin_setup+0x184>)
 8002872:	4293      	cmp	r3, r2
 8002874:	d128      	bne.n	80028c8 <pin_setup+0x170>
		if(config->SCL_Pin == I2C_Configuration.Pin.__I2C3__.SCL.PA8) GPIO_Pin_Init(GPIOA, 8, GPIO_Configuration.Mode.Alternate_Function, GPIO_Configuration.Output_Type.Open_Drain, GPIO_Configuration.Speed.Very_High_Speed, GPIO_Configuration.Pull.Pull_Up, GPIO_Configuration.Alternate_Functions.I2C_3);
 8002876:	687b      	ldr	r3, [r7, #4]
 8002878:	791b      	ldrb	r3, [r3, #4]
 800287a:	461a      	mov	r2, r3
 800287c:	236c      	movs	r3, #108	@ 0x6c
 800287e:	429a      	cmp	r2, r3
 8002880:	d10d      	bne.n	800289e <pin_setup+0x146>
 8002882:	2002      	movs	r0, #2
 8002884:	2401      	movs	r4, #1
 8002886:	2303      	movs	r3, #3
 8002888:	2201      	movs	r2, #1
 800288a:	2104      	movs	r1, #4
 800288c:	9102      	str	r1, [sp, #8]
 800288e:	9201      	str	r2, [sp, #4]
 8002890:	9300      	str	r3, [sp, #0]
 8002892:	4623      	mov	r3, r4
 8002894:	4602      	mov	r2, r0
 8002896:	2108      	movs	r1, #8
 8002898:	4811      	ldr	r0, [pc, #68]	@ (80028e0 <pin_setup+0x188>)
 800289a:	f7ff feb5 	bl	8002608 <GPIO_Pin_Init>
		if(config->SDA_Pin == I2C_Configuration.Pin.__I2C3__.SDA.PC9) GPIO_Pin_Init(GPIOC, 9, GPIO_Configuration.Mode.Alternate_Function, GPIO_Configuration.Output_Type.Open_Drain, GPIO_Configuration.Speed.Very_High_Speed, GPIO_Configuration.Pull.Pull_Up, GPIO_Configuration.Alternate_Functions.I2C_3);
 800289e:	687b      	ldr	r3, [r7, #4]
 80028a0:	795b      	ldrb	r3, [r3, #5]
 80028a2:	461a      	mov	r2, r3
 80028a4:	f240 1335 	movw	r3, #309	@ 0x135
 80028a8:	429a      	cmp	r2, r3
 80028aa:	d10d      	bne.n	80028c8 <pin_setup+0x170>
 80028ac:	2002      	movs	r0, #2
 80028ae:	2401      	movs	r4, #1
 80028b0:	2303      	movs	r3, #3
 80028b2:	2201      	movs	r2, #1
 80028b4:	2104      	movs	r1, #4
 80028b6:	9102      	str	r1, [sp, #8]
 80028b8:	9201      	str	r2, [sp, #4]
 80028ba:	9300      	str	r3, [sp, #0]
 80028bc:	4623      	mov	r3, r4
 80028be:	4602      	mov	r2, r0
 80028c0:	2109      	movs	r1, #9
 80028c2:	4808      	ldr	r0, [pc, #32]	@ (80028e4 <pin_setup+0x18c>)
 80028c4:	f7ff fea0 	bl	8002608 <GPIO_Pin_Init>
}
 80028c8:	bf00      	nop
 80028ca:	370c      	adds	r7, #12
 80028cc:	46bd      	mov	sp, r7
 80028ce:	bd90      	pop	{r4, r7, pc}
 80028d0:	40005400 	.word	0x40005400
 80028d4:	40020400 	.word	0x40020400
 80028d8:	40005800 	.word	0x40005800
 80028dc:	40005c00 	.word	0x40005c00
 80028e0:	40020000 	.word	0x40020000
 80028e4:	40020800 	.word	0x40020800

080028e8 <I2C_Clock_Enable>:

void I2C_Clock_Enable(I2C_Config *config)
{
 80028e8:	b480      	push	{r7}
 80028ea:	b083      	sub	sp, #12
 80028ec:	af00      	add	r7, sp, #0
 80028ee:	6078      	str	r0, [r7, #4]
	if(config->Port == I2C1)
 80028f0:	687b      	ldr	r3, [r7, #4]
 80028f2:	681b      	ldr	r3, [r3, #0]
 80028f4:	4a13      	ldr	r2, [pc, #76]	@ (8002944 <I2C_Clock_Enable+0x5c>)
 80028f6:	4293      	cmp	r3, r2
 80028f8:	d106      	bne.n	8002908 <I2C_Clock_Enable+0x20>
	{
		RCC -> APB1ENR |= RCC_APB1ENR_I2C1EN;
 80028fa:	4b13      	ldr	r3, [pc, #76]	@ (8002948 <I2C_Clock_Enable+0x60>)
 80028fc:	6c1b      	ldr	r3, [r3, #64]	@ 0x40
 80028fe:	4a12      	ldr	r2, [pc, #72]	@ (8002948 <I2C_Clock_Enable+0x60>)
 8002900:	f443 1300 	orr.w	r3, r3, #2097152	@ 0x200000
 8002904:	6413      	str	r3, [r2, #64]	@ 0x40
	}
	else if(config->Port == I2C3)
	{
		RCC -> APB1ENR |= RCC_APB1ENR_I2C3EN;
	}
}
 8002906:	e016      	b.n	8002936 <I2C_Clock_Enable+0x4e>
	else if(config->Port == I2C2)
 8002908:	687b      	ldr	r3, [r7, #4]
 800290a:	681b      	ldr	r3, [r3, #0]
 800290c:	4a0f      	ldr	r2, [pc, #60]	@ (800294c <I2C_Clock_Enable+0x64>)
 800290e:	4293      	cmp	r3, r2
 8002910:	d106      	bne.n	8002920 <I2C_Clock_Enable+0x38>
		RCC -> APB1ENR |= RCC_APB1ENR_I2C2EN;
 8002912:	4b0d      	ldr	r3, [pc, #52]	@ (8002948 <I2C_Clock_Enable+0x60>)
 8002914:	6c1b      	ldr	r3, [r3, #64]	@ 0x40
 8002916:	4a0c      	ldr	r2, [pc, #48]	@ (8002948 <I2C_Clock_Enable+0x60>)
 8002918:	f443 0380 	orr.w	r3, r3, #4194304	@ 0x400000
 800291c:	6413      	str	r3, [r2, #64]	@ 0x40
}
 800291e:	e00a      	b.n	8002936 <I2C_Clock_Enable+0x4e>
	else if(config->Port == I2C3)
 8002920:	687b      	ldr	r3, [r7, #4]
 8002922:	681b      	ldr	r3, [r3, #0]
 8002924:	4a0a      	ldr	r2, [pc, #40]	@ (8002950 <I2C_Clock_Enable+0x68>)
 8002926:	4293      	cmp	r3, r2
 8002928:	d105      	bne.n	8002936 <I2C_Clock_Enable+0x4e>
		RCC -> APB1ENR |= RCC_APB1ENR_I2C3EN;
 800292a:	4b07      	ldr	r3, [pc, #28]	@ (8002948 <I2C_Clock_Enable+0x60>)
 800292c:	6c1b      	ldr	r3, [r3, #64]	@ 0x40
 800292e:	4a06      	ldr	r2, [pc, #24]	@ (8002948 <I2C_Clock_Enable+0x60>)
 8002930:	f443 0300 	orr.w	r3, r3, #8388608	@ 0x800000
 8002934:	6413      	str	r3, [r2, #64]	@ 0x40
}
 8002936:	bf00      	nop
 8002938:	370c      	adds	r7, #12
 800293a:	46bd      	mov	sp, r7
 800293c:	f85d 7b04 	ldr.w	r7, [sp], #4
 8002940:	4770      	bx	lr
 8002942:	bf00      	nop
 8002944:	40005400 	.word	0x40005400
 8002948:	40023800 	.word	0x40023800
 800294c:	40005800 	.word	0x40005800
 8002950:	40005c00 	.word	0x40005c00

08002954 <I2C_Init>:
	config->Mode = I2C_Configuration.Mode.Master;
	I2C_Clock_Disable(config);
}

void I2C_Init(I2C_Config *config)
{
 8002954:	b590      	push	{r4, r7, lr}
 8002956:	b083      	sub	sp, #12
 8002958:	af00      	add	r7, sp, #0
 800295a:	6078      	str	r0, [r7, #4]
	pin_setup(config);
 800295c:	6878      	ldr	r0, [r7, #4]
 800295e:	f7ff fefb 	bl	8002758 <pin_setup>
	I2C_Clock_Enable(config);
 8002962:	6878      	ldr	r0, [r7, #4]
 8002964:	f7ff ffc0 	bl	80028e8 <I2C_Clock_Enable>

	config->Port -> CR1 &= ~I2C_CR1_PE;
 8002968:	687b      	ldr	r3, [r7, #4]
 800296a:	681b      	ldr	r3, [r3, #0]
 800296c:	681a      	ldr	r2, [r3, #0]
 800296e:	687b      	ldr	r3, [r7, #4]
 8002970:	681b      	ldr	r3, [r3, #0]
 8002972:	f022 0201 	bic.w	r2, r2, #1
 8002976:	601a      	str	r2, [r3, #0]
	config->Port -> CR1 |= I2C_CR1_SWRST | I2C_CR1_NOSTRETCH;
 8002978:	687b      	ldr	r3, [r7, #4]
 800297a:	681b      	ldr	r3, [r3, #0]
 800297c:	681b      	ldr	r3, [r3, #0]
 800297e:	687a      	ldr	r2, [r7, #4]
 8002980:	6812      	ldr	r2, [r2, #0]
 8002982:	f443 4300 	orr.w	r3, r3, #32768	@ 0x8000
 8002986:	f043 0380 	orr.w	r3, r3, #128	@ 0x80
 800298a:	6013      	str	r3, [r2, #0]
	config->Port -> CR1 &= ~I2C_CR1_SWRST;
 800298c:	687b      	ldr	r3, [r7, #4]
 800298e:	681b      	ldr	r3, [r3, #0]
 8002990:	681a      	ldr	r2, [r3, #0]
 8002992:	687b      	ldr	r3, [r7, #4]
 8002994:	681b      	ldr	r3, [r3, #0]
 8002996:	f422 4200 	bic.w	r2, r2, #32768	@ 0x8000
 800299a:	601a      	str	r2, [r3, #0]

	if(config -> Interrupts == I2C_Configuration.Interrupts.Disable)
 800299c:	687b      	ldr	r3, [r7, #4]
 800299e:	7b5b      	ldrb	r3, [r3, #13]
 80029a0:	461a      	mov	r2, r3
 80029a2:	2300      	movs	r3, #0
 80029a4:	429a      	cmp	r2, r3
 80029a6:	d108      	bne.n	80029ba <I2C_Init+0x66>
	{
		config -> Port -> CR2 &= ~(I2C_CR2_ITBUFEN | I2C_CR2_ITERREN | I2C_CR2_ITEVTEN);
 80029a8:	687b      	ldr	r3, [r7, #4]
 80029aa:	681b      	ldr	r3, [r3, #0]
 80029ac:	685a      	ldr	r2, [r3, #4]
 80029ae:	687b      	ldr	r3, [r7, #4]
 80029b0:	681b      	ldr	r3, [r3, #0]
 80029b2:	f422 62e0 	bic.w	r2, r2, #1792	@ 0x700
 80029b6:	605a      	str	r2, [r3, #4]
 80029b8:	e029      	b.n	8002a0e <I2C_Init+0xba>
	}
	else
	{
		if(config->Interrupts == I2C_Configuration.Interrupts.Buffer)
 80029ba:	687b      	ldr	r3, [r7, #4]
 80029bc:	7b5b      	ldrb	r3, [r3, #13]
 80029be:	461a      	mov	r2, r3
 80029c0:	2303      	movs	r3, #3
 80029c2:	429a      	cmp	r2, r3
 80029c4:	d107      	bne.n	80029d6 <I2C_Init+0x82>
		{
			config -> Port -> CR2 |= I2C_CR2_ITBUFEN;
 80029c6:	687b      	ldr	r3, [r7, #4]
 80029c8:	681b      	ldr	r3, [r3, #0]
 80029ca:	685a      	ldr	r2, [r3, #4]
 80029cc:	687b      	ldr	r3, [r7, #4]
 80029ce:	681b      	ldr	r3, [r3, #0]
 80029d0:	f442 6280 	orr.w	r2, r2, #1024	@ 0x400
 80029d4:	605a      	str	r2, [r3, #4]
		}
		if(config->Interrupts == I2C_Configuration.Interrupts.Error)
 80029d6:	687b      	ldr	r3, [r7, #4]
 80029d8:	7b5b      	ldrb	r3, [r3, #13]
 80029da:	461a      	mov	r2, r3
 80029dc:	2301      	movs	r3, #1
 80029de:	429a      	cmp	r2, r3
 80029e0:	d107      	bne.n	80029f2 <I2C_Init+0x9e>
		{
			config -> Port -> CR2 |= I2C_CR2_ITERREN;
 80029e2:	687b      	ldr	r3, [r7, #4]
 80029e4:	681b      	ldr	r3, [r3, #0]
 80029e6:	685a      	ldr	r2, [r3, #4]
 80029e8:	687b      	ldr	r3, [r7, #4]
 80029ea:	681b      	ldr	r3, [r3, #0]
 80029ec:	f442 7280 	orr.w	r2, r2, #256	@ 0x100
 80029f0:	605a      	str	r2, [r3, #4]
		}
		if(config->Interrupts == I2C_Configuration.Interrupts.Event)
 80029f2:	687b      	ldr	r3, [r7, #4]
 80029f4:	7b5b      	ldrb	r3, [r3, #13]
 80029f6:	461a      	mov	r2, r3
 80029f8:	2302      	movs	r3, #2
 80029fa:	429a      	cmp	r2, r3
 80029fc:	d107      	bne.n	8002a0e <I2C_Init+0xba>
		{
			config -> Port -> CR2 |= I2C_CR2_ITEVTEN;
 80029fe:	687b      	ldr	r3, [r7, #4]
 8002a00:	681b      	ldr	r3, [r3, #0]
 8002a02:	685a      	ldr	r2, [r3, #4]
 8002a04:	687b      	ldr	r3, [r7, #4]
 8002a06:	681b      	ldr	r3, [r3, #0]
 8002a08:	f442 7200 	orr.w	r2, r2, #512	@ 0x200
 8002a0c:	605a      	str	r2, [r3, #4]


	//CCR ==> [Tr + Tw]/(1/48000000)
	//TRISE ==> [Tr/(1/48000000)]

	if(config->Speed_Mode == I2C_Configuration.Speed_Mode.FM_Mode)
 8002a0e:	687b      	ldr	r3, [r7, #4]
 8002a10:	689b      	ldr	r3, [r3, #8]
 8002a12:	2201      	movs	r2, #1
 8002a14:	4293      	cmp	r3, r2
 8002a16:	d111      	bne.n	8002a3c <I2C_Init+0xe8>
	{
		config->Port -> CR2 |= 30; //42MHz
 8002a18:	687b      	ldr	r3, [r7, #4]
 8002a1a:	681b      	ldr	r3, [r3, #0]
 8002a1c:	685a      	ldr	r2, [r3, #4]
 8002a1e:	687b      	ldr	r3, [r7, #4]
 8002a20:	681b      	ldr	r3, [r3, #0]
 8002a22:	f042 021e 	orr.w	r2, r2, #30
 8002a26:	605a      	str	r2, [r3, #4]
		config->Port -> CCR = (1<<15) | (1<<14) | 5;
 8002a28:	687b      	ldr	r3, [r7, #4]
 8002a2a:	681b      	ldr	r3, [r3, #0]
 8002a2c:	f24c 0205 	movw	r2, #49157	@ 0xc005
 8002a30:	61da      	str	r2, [r3, #28]
		config->Port -> TRISE = 30;
 8002a32:	687b      	ldr	r3, [r7, #4]
 8002a34:	681b      	ldr	r3, [r3, #0]
 8002a36:	221e      	movs	r2, #30
 8002a38:	621a      	str	r2, [r3, #32]
 8002a3a:	e00b      	b.n	8002a54 <I2C_Init+0x100>
	}
	else
	{
		config-> Port  -> CR2 = 25;
 8002a3c:	687b      	ldr	r3, [r7, #4]
 8002a3e:	681b      	ldr	r3, [r3, #0]
 8002a40:	2219      	movs	r2, #25
 8002a42:	605a      	str	r2, [r3, #4]
		config->Port  -> CCR = 0x28;
 8002a44:	687b      	ldr	r3, [r7, #4]
 8002a46:	681b      	ldr	r3, [r3, #0]
 8002a48:	2228      	movs	r2, #40	@ 0x28
 8002a4a:	61da      	str	r2, [r3, #28]
		config->Port  -> TRISE = 0x8;
 8002a4c:	687b      	ldr	r3, [r7, #4]
 8002a4e:	681b      	ldr	r3, [r3, #0]
 8002a50:	2208      	movs	r2, #8
 8002a52:	621a      	str	r2, [r3, #32]
	}

	if(config -> DMA_Control == I2C_Configuration.DMA_Control.RX_DMA_Enable)
 8002a54:	687b      	ldr	r3, [r7, #4]
 8002a56:	7b9b      	ldrb	r3, [r3, #14]
 8002a58:	2202      	movs	r2, #2
 8002a5a:	4293      	cmp	r3, r2
 8002a5c:	f040 80a9 	bne.w	8002bb2 <I2C_Init+0x25e>
	{
		config -> Port -> CR2 |= I2C_CR2_LAST;
 8002a60:	687b      	ldr	r3, [r7, #4]
 8002a62:	681b      	ldr	r3, [r3, #0]
 8002a64:	685a      	ldr	r2, [r3, #4]
 8002a66:	687b      	ldr	r3, [r7, #4]
 8002a68:	681b      	ldr	r3, [r3, #0]
 8002a6a:	f442 5280 	orr.w	r2, r2, #4096	@ 0x1000
 8002a6e:	605a      	str	r2, [r3, #4]
		config -> Port -> CR2 |= I2C_CR2_DMAEN;
 8002a70:	687b      	ldr	r3, [r7, #4]
 8002a72:	681b      	ldr	r3, [r3, #0]
 8002a74:	685a      	ldr	r2, [r3, #4]
 8002a76:	687b      	ldr	r3, [r7, #4]
 8002a78:	681b      	ldr	r3, [r3, #0]
 8002a7a:	f442 6200 	orr.w	r2, r2, #2048	@ 0x800
 8002a7e:	605a      	str	r2, [r3, #4]
		if(config->Port == I2C1)
 8002a80:	687b      	ldr	r3, [r7, #4]
 8002a82:	681b      	ldr	r3, [r3, #0]
 8002a84:	4a55      	ldr	r2, [pc, #340]	@ (8002bdc <I2C_Init+0x288>)
 8002a86:	4293      	cmp	r3, r2
 8002a88:	d132      	bne.n	8002af0 <I2C_Init+0x19c>
		{
//			config -> Port -> CR2 |= I2C_CR2_DMAEN;
			xI2C1_RX.Request = DMA_Configuration.Request.I2C1_RX;
 8002a8a:	4a55      	ldr	r2, [pc, #340]	@ (8002be0 <I2C_Init+0x28c>)
 8002a8c:	4b55      	ldr	r3, [pc, #340]	@ (8002be4 <I2C_Init+0x290>)
 8002a8e:	4614      	mov	r4, r2
 8002a90:	3378      	adds	r3, #120	@ 0x78
 8002a92:	e893 0007 	ldmia.w	r3, {r0, r1, r2}
 8002a96:	e884 0007 	stmia.w	r4, {r0, r1, r2}
			xI2C1_RX.circular_mode = DMA_Configuration.Circular_Mode.Disable;
 8002a9a:	2200      	movs	r2, #0
 8002a9c:	4b50      	ldr	r3, [pc, #320]	@ (8002be0 <I2C_Init+0x28c>)
 8002a9e:	619a      	str	r2, [r3, #24]
			xI2C1_RX.flow_control = DMA_Configuration.Flow_Control.DMA_Control;
 8002aa0:	2200      	movs	r2, #0
 8002aa2:	4b4f      	ldr	r3, [pc, #316]	@ (8002be0 <I2C_Init+0x28c>)
 8002aa4:	60da      	str	r2, [r3, #12]
			xI2C1_RX.interrupts = DMA_Configuration.DMA_Interrupts.Transfer_Complete | DMA_Configuration.DMA_Interrupts.Half_Transfer_Complete |
 8002aa6:	2210      	movs	r2, #16
 8002aa8:	2308      	movs	r3, #8
 8002aaa:	4313      	orrs	r3, r2
					              DMA_Configuration.DMA_Interrupts.Transfer_Error | DMA_Configuration.DMA_Interrupts.Fifo_Error | DMA_Configuration.DMA_Interrupts.Direct_Mode_Error;
 8002aac:	2204      	movs	r2, #4
			xI2C1_RX.interrupts = DMA_Configuration.DMA_Interrupts.Transfer_Complete | DMA_Configuration.DMA_Interrupts.Half_Transfer_Complete |
 8002aae:	4313      	orrs	r3, r2
					              DMA_Configuration.DMA_Interrupts.Transfer_Error | DMA_Configuration.DMA_Interrupts.Fifo_Error | DMA_Configuration.DMA_Interrupts.Direct_Mode_Error;
 8002ab0:	2280      	movs	r2, #128	@ 0x80
 8002ab2:	4313      	orrs	r3, r2
 8002ab4:	2202      	movs	r2, #2
 8002ab6:	4313      	orrs	r3, r2
			xI2C1_RX.interrupts = DMA_Configuration.DMA_Interrupts.Transfer_Complete | DMA_Configuration.DMA_Interrupts.Half_Transfer_Complete |
 8002ab8:	4a49      	ldr	r2, [pc, #292]	@ (8002be0 <I2C_Init+0x28c>)
 8002aba:	61d3      	str	r3, [r2, #28]
			xI2C1_RX.memory_data_size = DMA_Configuration.Memory_Data_Size.byte;
 8002abc:	2200      	movs	r2, #0
 8002abe:	4b48      	ldr	r3, [pc, #288]	@ (8002be0 <I2C_Init+0x28c>)
 8002ac0:	629a      	str	r2, [r3, #40]	@ 0x28
			xI2C1_RX.memory_pointer_increment = DMA_Configuration.Memory_Pointer_Increment.Enable;
 8002ac2:	f44f 6380 	mov.w	r3, #1024	@ 0x400
 8002ac6:	b29a      	uxth	r2, r3
 8002ac8:	4b45      	ldr	r3, [pc, #276]	@ (8002be0 <I2C_Init+0x28c>)
 8002aca:	841a      	strh	r2, [r3, #32]
			xI2C1_RX.peripheral_data_size = DMA_Configuration.Peripheral_Data_Size.byte;
 8002acc:	2200      	movs	r2, #0
 8002ace:	4b44      	ldr	r3, [pc, #272]	@ (8002be0 <I2C_Init+0x28c>)
 8002ad0:	625a      	str	r2, [r3, #36]	@ 0x24
			xI2C1_RX.peripheral_pointer_increment = DMA_Configuration.Peripheral_Pointer_Increment.Disable;
 8002ad2:	2300      	movs	r3, #0
 8002ad4:	b29a      	uxth	r2, r3
 8002ad6:	4b42      	ldr	r3, [pc, #264]	@ (8002be0 <I2C_Init+0x28c>)
 8002ad8:	845a      	strh	r2, [r3, #34]	@ 0x22
			xI2C1_RX.transfer_direction = DMA_Configuration.Transfer_Direction.Peripheral_to_memory;
 8002ada:	2200      	movs	r2, #0
 8002adc:	4b40      	ldr	r3, [pc, #256]	@ (8002be0 <I2C_Init+0x28c>)
 8002ade:	611a      	str	r2, [r3, #16]
			xI2C1_RX.priority_level = DMA_Configuration.Priority_Level.Very_high;
 8002ae0:	f44f 3240 	mov.w	r2, #196608	@ 0x30000
 8002ae4:	4b3e      	ldr	r3, [pc, #248]	@ (8002be0 <I2C_Init+0x28c>)
 8002ae6:	615a      	str	r2, [r3, #20]
			DMA_Init(&xI2C1_RX);
 8002ae8:	483d      	ldr	r0, [pc, #244]	@ (8002be0 <I2C_Init+0x28c>)
 8002aea:	f7ff f98f 	bl	8001e0c <DMA_Init>
 8002aee:	e060      	b.n	8002bb2 <I2C_Init+0x25e>
		}

		else if(config->Port == I2C2)
 8002af0:	687b      	ldr	r3, [r7, #4]
 8002af2:	681b      	ldr	r3, [r3, #0]
 8002af4:	4a3c      	ldr	r2, [pc, #240]	@ (8002be8 <I2C_Init+0x294>)
 8002af6:	4293      	cmp	r3, r2
 8002af8:	d12b      	bne.n	8002b52 <I2C_Init+0x1fe>
		{
//			config -> Port -> CR2 |= I2C_CR2_DMAEN;
			xI2C2_RX.Request = DMA_Configuration.Request.I2C2_RX;
 8002afa:	4a3c      	ldr	r2, [pc, #240]	@ (8002bec <I2C_Init+0x298>)
 8002afc:	4b39      	ldr	r3, [pc, #228]	@ (8002be4 <I2C_Init+0x290>)
 8002afe:	4614      	mov	r4, r2
 8002b00:	3390      	adds	r3, #144	@ 0x90
 8002b02:	e893 0007 	ldmia.w	r3, {r0, r1, r2}
 8002b06:	e884 0007 	stmia.w	r4, {r0, r1, r2}
			xI2C2_RX.circular_mode = DMA_Configuration.Circular_Mode.Disable;
 8002b0a:	2200      	movs	r2, #0
 8002b0c:	4b37      	ldr	r3, [pc, #220]	@ (8002bec <I2C_Init+0x298>)
 8002b0e:	619a      	str	r2, [r3, #24]
			xI2C2_RX.flow_control = DMA_Configuration.Flow_Control.DMA_Control;
 8002b10:	2200      	movs	r2, #0
 8002b12:	4b36      	ldr	r3, [pc, #216]	@ (8002bec <I2C_Init+0x298>)
 8002b14:	60da      	str	r2, [r3, #12]
			xI2C2_RX.interrupts = DMA_Configuration.DMA_Interrupts.Transfer_Complete;
 8002b16:	2210      	movs	r2, #16
 8002b18:	4b34      	ldr	r3, [pc, #208]	@ (8002bec <I2C_Init+0x298>)
 8002b1a:	61da      	str	r2, [r3, #28]
			xI2C2_RX.memory_data_size = DMA_Configuration.Memory_Data_Size.byte;
 8002b1c:	2200      	movs	r2, #0
 8002b1e:	4b33      	ldr	r3, [pc, #204]	@ (8002bec <I2C_Init+0x298>)
 8002b20:	629a      	str	r2, [r3, #40]	@ 0x28
			xI2C2_RX.memory_pointer_increment = DMA_Configuration.Memory_Pointer_Increment.Enable;
 8002b22:	f44f 6380 	mov.w	r3, #1024	@ 0x400
 8002b26:	b29a      	uxth	r2, r3
 8002b28:	4b30      	ldr	r3, [pc, #192]	@ (8002bec <I2C_Init+0x298>)
 8002b2a:	841a      	strh	r2, [r3, #32]
			xI2C2_RX.peripheral_data_size = DMA_Configuration.Peripheral_Data_Size.byte;
 8002b2c:	2200      	movs	r2, #0
 8002b2e:	4b2f      	ldr	r3, [pc, #188]	@ (8002bec <I2C_Init+0x298>)
 8002b30:	625a      	str	r2, [r3, #36]	@ 0x24
			xI2C2_RX.peripheral_pointer_increment = DMA_Configuration.Peripheral_Pointer_Increment.Enable;
 8002b32:	f44f 7300 	mov.w	r3, #512	@ 0x200
 8002b36:	b29a      	uxth	r2, r3
 8002b38:	4b2c      	ldr	r3, [pc, #176]	@ (8002bec <I2C_Init+0x298>)
 8002b3a:	845a      	strh	r2, [r3, #34]	@ 0x22
			xI2C2_RX.transfer_direction = DMA_Configuration.Transfer_Direction.Peripheral_to_memory;
 8002b3c:	2200      	movs	r2, #0
 8002b3e:	4b2b      	ldr	r3, [pc, #172]	@ (8002bec <I2C_Init+0x298>)
 8002b40:	611a      	str	r2, [r3, #16]
			xI2C2_RX.priority_level = DMA_Configuration.Priority_Level.Very_high;
 8002b42:	f44f 3240 	mov.w	r2, #196608	@ 0x30000
 8002b46:	4b29      	ldr	r3, [pc, #164]	@ (8002bec <I2C_Init+0x298>)
 8002b48:	615a      	str	r2, [r3, #20]
			DMA_Init(&xI2C2_RX);
 8002b4a:	4828      	ldr	r0, [pc, #160]	@ (8002bec <I2C_Init+0x298>)
 8002b4c:	f7ff f95e 	bl	8001e0c <DMA_Init>
 8002b50:	e02f      	b.n	8002bb2 <I2C_Init+0x25e>
		}

		else if(config->Port == I2C3)
 8002b52:	687b      	ldr	r3, [r7, #4]
 8002b54:	681b      	ldr	r3, [r3, #0]
 8002b56:	4a26      	ldr	r2, [pc, #152]	@ (8002bf0 <I2C_Init+0x29c>)
 8002b58:	4293      	cmp	r3, r2
 8002b5a:	d12a      	bne.n	8002bb2 <I2C_Init+0x25e>
		{
//			config -> Port -> CR2 |= I2C_CR2_DMAEN;
			xI2C3_RX.Request = DMA_Configuration.Request.I2C3_RX;
 8002b5c:	4a25      	ldr	r2, [pc, #148]	@ (8002bf4 <I2C_Init+0x2a0>)
 8002b5e:	4b21      	ldr	r3, [pc, #132]	@ (8002be4 <I2C_Init+0x290>)
 8002b60:	4614      	mov	r4, r2
 8002b62:	33a8      	adds	r3, #168	@ 0xa8
 8002b64:	e893 0007 	ldmia.w	r3, {r0, r1, r2}
 8002b68:	e884 0007 	stmia.w	r4, {r0, r1, r2}
			xI2C3_RX.circular_mode = DMA_Configuration.Circular_Mode.Disable;
 8002b6c:	2200      	movs	r2, #0
 8002b6e:	4b21      	ldr	r3, [pc, #132]	@ (8002bf4 <I2C_Init+0x2a0>)
 8002b70:	619a      	str	r2, [r3, #24]
			xI2C3_RX.flow_control = DMA_Configuration.Flow_Control.DMA_Control;
 8002b72:	2200      	movs	r2, #0
 8002b74:	4b1f      	ldr	r3, [pc, #124]	@ (8002bf4 <I2C_Init+0x2a0>)
 8002b76:	60da      	str	r2, [r3, #12]
			xI2C3_RX.interrupts = DMA_Configuration.DMA_Interrupts.Transfer_Complete;
 8002b78:	2210      	movs	r2, #16
 8002b7a:	4b1e      	ldr	r3, [pc, #120]	@ (8002bf4 <I2C_Init+0x2a0>)
 8002b7c:	61da      	str	r2, [r3, #28]
			xI2C3_RX.memory_data_size = DMA_Configuration.Memory_Data_Size.byte;
 8002b7e:	2200      	movs	r2, #0
 8002b80:	4b1c      	ldr	r3, [pc, #112]	@ (8002bf4 <I2C_Init+0x2a0>)
 8002b82:	629a      	str	r2, [r3, #40]	@ 0x28
			xI2C3_RX.memory_pointer_increment = DMA_Configuration.Memory_Pointer_Increment.Enable;
 8002b84:	f44f 6380 	mov.w	r3, #1024	@ 0x400
 8002b88:	b29a      	uxth	r2, r3
 8002b8a:	4b1a      	ldr	r3, [pc, #104]	@ (8002bf4 <I2C_Init+0x2a0>)
 8002b8c:	841a      	strh	r2, [r3, #32]
			xI2C3_RX.peripheral_data_size = DMA_Configuration.Peripheral_Data_Size.byte;
 8002b8e:	2200      	movs	r2, #0
 8002b90:	4b18      	ldr	r3, [pc, #96]	@ (8002bf4 <I2C_Init+0x2a0>)
 8002b92:	625a      	str	r2, [r3, #36]	@ 0x24
			xI2C3_RX.peripheral_pointer_increment = DMA_Configuration.Peripheral_Pointer_Increment.Enable;
 8002b94:	f44f 7300 	mov.w	r3, #512	@ 0x200
 8002b98:	b29a      	uxth	r2, r3
 8002b9a:	4b16      	ldr	r3, [pc, #88]	@ (8002bf4 <I2C_Init+0x2a0>)
 8002b9c:	845a      	strh	r2, [r3, #34]	@ 0x22
			xI2C3_RX.transfer_direction = DMA_Configuration.Transfer_Direction.Peripheral_to_memory;
 8002b9e:	2200      	movs	r2, #0
 8002ba0:	4b14      	ldr	r3, [pc, #80]	@ (8002bf4 <I2C_Init+0x2a0>)
 8002ba2:	611a      	str	r2, [r3, #16]
			xI2C3_RX.priority_level = DMA_Configuration.Priority_Level.Very_high;
 8002ba4:	f44f 3240 	mov.w	r2, #196608	@ 0x30000
 8002ba8:	4b12      	ldr	r3, [pc, #72]	@ (8002bf4 <I2C_Init+0x2a0>)
 8002baa:	615a      	str	r2, [r3, #20]
			DMA_Init(&xI2C3_RX);
 8002bac:	4811      	ldr	r0, [pc, #68]	@ (8002bf4 <I2C_Init+0x2a0>)
 8002bae:	f7ff f92d 	bl	8001e0c <DMA_Init>
		}

	}

	config -> Port -> CR1 |= I2C_CR1_NOSTRETCH;
 8002bb2:	687b      	ldr	r3, [r7, #4]
 8002bb4:	681b      	ldr	r3, [r3, #0]
 8002bb6:	681a      	ldr	r2, [r3, #0]
 8002bb8:	687b      	ldr	r3, [r7, #4]
 8002bba:	681b      	ldr	r3, [r3, #0]
 8002bbc:	f042 0280 	orr.w	r2, r2, #128	@ 0x80
 8002bc0:	601a      	str	r2, [r3, #0]
	config -> Port -> CR1 |= I2C_CR1_PE;
 8002bc2:	687b      	ldr	r3, [r7, #4]
 8002bc4:	681b      	ldr	r3, [r3, #0]
 8002bc6:	681a      	ldr	r2, [r3, #0]
 8002bc8:	687b      	ldr	r3, [r7, #4]
 8002bca:	681b      	ldr	r3, [r3, #0]
 8002bcc:	f042 0201 	orr.w	r2, r2, #1
 8002bd0:	601a      	str	r2, [r3, #0]

}
 8002bd2:	bf00      	nop
 8002bd4:	370c      	adds	r7, #12
 8002bd6:	46bd      	mov	sp, r7
 8002bd8:	bd90      	pop	{r4, r7, pc}
 8002bda:	bf00      	nop
 8002bdc:	40005400 	.word	0x40005400
 8002be0:	200002d0 	.word	0x200002d0
 8002be4:	08003eec 	.word	0x08003eec
 8002be8:	40005800 	.word	0x40005800
 8002bec:	20000308 	.word	0x20000308
 8002bf0:	40005c00 	.word	0x40005c00
 8002bf4:	20000340 	.word	0x20000340

08002bf8 <I2C_Master_Start>:


int8_t I2C_Master_Start(I2C_Config *config)
{
 8002bf8:	b480      	push	{r7}
 8002bfa:	b085      	sub	sp, #20
 8002bfc:	af00      	add	r7, sp, #0
 8002bfe:	6078      	str	r0, [r7, #4]
	int time_out = 1000;
 8002c00:	f44f 737a 	mov.w	r3, #1000	@ 0x3e8
 8002c04:	60fb      	str	r3, [r7, #12]
	config -> Port -> CR1 |= I2C_CR1_START;
 8002c06:	687b      	ldr	r3, [r7, #4]
 8002c08:	681b      	ldr	r3, [r3, #0]
 8002c0a:	681a      	ldr	r2, [r3, #0]
 8002c0c:	687b      	ldr	r3, [r7, #4]
 8002c0e:	681b      	ldr	r3, [r3, #0]
 8002c10:	f442 7280 	orr.w	r2, r2, #256	@ 0x100
 8002c14:	601a      	str	r2, [r3, #0]
	config -> Port -> CR1 |= I2C_CR1_START;
 8002c16:	687b      	ldr	r3, [r7, #4]
 8002c18:	681b      	ldr	r3, [r3, #0]
 8002c1a:	681a      	ldr	r2, [r3, #0]
 8002c1c:	687b      	ldr	r3, [r7, #4]
 8002c1e:	681b      	ldr	r3, [r3, #0]
 8002c20:	f442 7280 	orr.w	r2, r2, #256	@ 0x100
 8002c24:	601a      	str	r2, [r3, #0]
	while( !(config -> Port -> SR1 & I2C_SR1_SB))
 8002c26:	e008      	b.n	8002c3a <I2C_Master_Start+0x42>
	{
		if(time_out == 0)
 8002c28:	68fb      	ldr	r3, [r7, #12]
 8002c2a:	2b00      	cmp	r3, #0
 8002c2c:	d102      	bne.n	8002c34 <I2C_Master_Start+0x3c>
		{
			return -1;
 8002c2e:	f04f 33ff 	mov.w	r3, #4294967295
 8002c32:	e00a      	b.n	8002c4a <I2C_Master_Start+0x52>
		}
		time_out--;
 8002c34:	68fb      	ldr	r3, [r7, #12]
 8002c36:	3b01      	subs	r3, #1
 8002c38:	60fb      	str	r3, [r7, #12]
	while( !(config -> Port -> SR1 & I2C_SR1_SB))
 8002c3a:	687b      	ldr	r3, [r7, #4]
 8002c3c:	681b      	ldr	r3, [r3, #0]
 8002c3e:	695b      	ldr	r3, [r3, #20]
 8002c40:	f003 0301 	and.w	r3, r3, #1
 8002c44:	2b00      	cmp	r3, #0
 8002c46:	d0ef      	beq.n	8002c28 <I2C_Master_Start+0x30>
	}
	return 0;
 8002c48:	2300      	movs	r3, #0
}
 8002c4a:	4618      	mov	r0, r3
 8002c4c:	3714      	adds	r7, #20
 8002c4e:	46bd      	mov	sp, r7
 8002c50:	f85d 7b04 	ldr.w	r7, [sp], #4
 8002c54:	4770      	bx	lr

08002c56 <I2C_Master_Address>:

void I2C_Master_Address(I2C_Config *config, uint8_t address, uint8_t read_write)
{
 8002c56:	b480      	push	{r7}
 8002c58:	b083      	sub	sp, #12
 8002c5a:	af00      	add	r7, sp, #0
 8002c5c:	6078      	str	r0, [r7, #4]
 8002c5e:	460b      	mov	r3, r1
 8002c60:	70fb      	strb	r3, [r7, #3]
 8002c62:	4613      	mov	r3, r2
 8002c64:	70bb      	strb	r3, [r7, #2]
//	volatile int temp;
	config -> Port -> DR = address << 1  | read_write;
 8002c66:	78fb      	ldrb	r3, [r7, #3]
 8002c68:	005a      	lsls	r2, r3, #1
 8002c6a:	78bb      	ldrb	r3, [r7, #2]
 8002c6c:	431a      	orrs	r2, r3
 8002c6e:	687b      	ldr	r3, [r7, #4]
 8002c70:	681b      	ldr	r3, [r3, #0]
 8002c72:	611a      	str	r2, [r3, #16]
	while((config -> Port -> SR1 & 2) == 0){}
 8002c74:	bf00      	nop
 8002c76:	687b      	ldr	r3, [r7, #4]
 8002c78:	681b      	ldr	r3, [r3, #0]
 8002c7a:	695b      	ldr	r3, [r3, #20]
 8002c7c:	f003 0302 	and.w	r3, r3, #2
 8002c80:	2b00      	cmp	r3, #0
 8002c82:	d0f8      	beq.n	8002c76 <I2C_Master_Address+0x20>
	while((config -> Port -> SR1 & 2))
 8002c84:	e00c      	b.n	8002ca0 <I2C_Master_Address+0x4a>
	{
//		temp = config -> Port -> SR1;
//		temp = config -> Port -> SR2;
		(void)config->Port -> SR1;
 8002c86:	687b      	ldr	r3, [r7, #4]
 8002c88:	681b      	ldr	r3, [r3, #0]
 8002c8a:	695b      	ldr	r3, [r3, #20]
		(void)config->Port -> SR2;
 8002c8c:	687b      	ldr	r3, [r7, #4]
 8002c8e:	681b      	ldr	r3, [r3, #0]
 8002c90:	699b      	ldr	r3, [r3, #24]
		if((config -> Port -> SR1 & 2) == 0)
 8002c92:	687b      	ldr	r3, [r7, #4]
 8002c94:	681b      	ldr	r3, [r3, #0]
 8002c96:	695b      	ldr	r3, [r3, #20]
 8002c98:	f003 0302 	and.w	r3, r3, #2
 8002c9c:	2b00      	cmp	r3, #0
 8002c9e:	d007      	beq.n	8002cb0 <I2C_Master_Address+0x5a>
	while((config -> Port -> SR1 & 2))
 8002ca0:	687b      	ldr	r3, [r7, #4]
 8002ca2:	681b      	ldr	r3, [r3, #0]
 8002ca4:	695b      	ldr	r3, [r3, #20]
 8002ca6:	f003 0302 	and.w	r3, r3, #2
 8002caa:	2b00      	cmp	r3, #0
 8002cac:	d1eb      	bne.n	8002c86 <I2C_Master_Address+0x30>
		{
			break;
		}
	}
}
 8002cae:	e000      	b.n	8002cb2 <I2C_Master_Address+0x5c>
			break;
 8002cb0:	bf00      	nop
}
 8002cb2:	bf00      	nop
 8002cb4:	370c      	adds	r7, #12
 8002cb6:	46bd      	mov	sp, r7
 8002cb8:	f85d 7b04 	ldr.w	r7, [sp], #4
 8002cbc:	4770      	bx	lr

08002cbe <I2C_Master_Send_Byte>:


void I2C_Master_Send_Byte(I2C_Config *config, uint8_t data)
{
 8002cbe:	b480      	push	{r7}
 8002cc0:	b083      	sub	sp, #12
 8002cc2:	af00      	add	r7, sp, #0
 8002cc4:	6078      	str	r0, [r7, #4]
 8002cc6:	460b      	mov	r3, r1
 8002cc8:	70fb      	strb	r3, [r7, #3]
	while((config -> Port-> SR1 & 0x80) == 0){}
 8002cca:	bf00      	nop
 8002ccc:	687b      	ldr	r3, [r7, #4]
 8002cce:	681b      	ldr	r3, [r3, #0]
 8002cd0:	695b      	ldr	r3, [r3, #20]
 8002cd2:	f003 0380 	and.w	r3, r3, #128	@ 0x80
 8002cd6:	2b00      	cmp	r3, #0
 8002cd8:	d0f8      	beq.n	8002ccc <I2C_Master_Send_Byte+0xe>
	config -> Port -> DR = data;
 8002cda:	687b      	ldr	r3, [r7, #4]
 8002cdc:	681b      	ldr	r3, [r3, #0]
 8002cde:	78fa      	ldrb	r2, [r7, #3]
 8002ce0:	611a      	str	r2, [r3, #16]
	while((config -> Port -> SR1 & 0x80) == 0){}
 8002ce2:	bf00      	nop
 8002ce4:	687b      	ldr	r3, [r7, #4]
 8002ce6:	681b      	ldr	r3, [r3, #0]
 8002ce8:	695b      	ldr	r3, [r3, #20]
 8002cea:	f003 0380 	and.w	r3, r3, #128	@ 0x80
 8002cee:	2b00      	cmp	r3, #0
 8002cf0:	d0f8      	beq.n	8002ce4 <I2C_Master_Send_Byte+0x26>
}
 8002cf2:	bf00      	nop
 8002cf4:	bf00      	nop
 8002cf6:	370c      	adds	r7, #12
 8002cf8:	46bd      	mov	sp, r7
 8002cfa:	f85d 7b04 	ldr.w	r7, [sp], #4
 8002cfe:	4770      	bx	lr

08002d00 <I2C_Master_Stop>:
{
	config -> Port -> CR1 |= I2C_CR1_ACK;
}

void I2C_Master_Stop(I2C_Config *config)
{
 8002d00:	b480      	push	{r7}
 8002d02:	b083      	sub	sp, #12
 8002d04:	af00      	add	r7, sp, #0
 8002d06:	6078      	str	r0, [r7, #4]
	config -> Port -> CR1 |= I2C_CR1_STOP;
 8002d08:	687b      	ldr	r3, [r7, #4]
 8002d0a:	681b      	ldr	r3, [r3, #0]
 8002d0c:	681a      	ldr	r2, [r3, #0]
 8002d0e:	687b      	ldr	r3, [r7, #4]
 8002d10:	681b      	ldr	r3, [r3, #0]
 8002d12:	f442 7200 	orr.w	r2, r2, #512	@ 0x200
 8002d16:	601a      	str	r2, [r3, #0]
}
 8002d18:	bf00      	nop
 8002d1a:	370c      	adds	r7, #12
 8002d1c:	46bd      	mov	sp, r7
 8002d1e:	f85d 7b04 	ldr.w	r7, [sp], #4
 8002d22:	4770      	bx	lr

08002d24 <I2C_Master_Write_Register>:


void I2C_Master_Write_Register(I2C_Config *config, uint8_t device_address, uint8_t reg_address, uint8_t data)
{
 8002d24:	b580      	push	{r7, lr}
 8002d26:	b082      	sub	sp, #8
 8002d28:	af00      	add	r7, sp, #0
 8002d2a:	6078      	str	r0, [r7, #4]
 8002d2c:	4608      	mov	r0, r1
 8002d2e:	4611      	mov	r1, r2
 8002d30:	461a      	mov	r2, r3
 8002d32:	4603      	mov	r3, r0
 8002d34:	70fb      	strb	r3, [r7, #3]
 8002d36:	460b      	mov	r3, r1
 8002d38:	70bb      	strb	r3, [r7, #2]
 8002d3a:	4613      	mov	r3, r2
 8002d3c:	707b      	strb	r3, [r7, #1]
	I2C_Master_Start(config);
 8002d3e:	6878      	ldr	r0, [r7, #4]
 8002d40:	f7ff ff5a 	bl	8002bf8 <I2C_Master_Start>
	I2C_Master_Address(config, device_address,0);
 8002d44:	78fb      	ldrb	r3, [r7, #3]
 8002d46:	2200      	movs	r2, #0
 8002d48:	4619      	mov	r1, r3
 8002d4a:	6878      	ldr	r0, [r7, #4]
 8002d4c:	f7ff ff83 	bl	8002c56 <I2C_Master_Address>
	I2C_Master_Send_Byte(config, reg_address);
 8002d50:	78bb      	ldrb	r3, [r7, #2]
 8002d52:	4619      	mov	r1, r3
 8002d54:	6878      	ldr	r0, [r7, #4]
 8002d56:	f7ff ffb2 	bl	8002cbe <I2C_Master_Send_Byte>
	I2C_Master_Send_Byte(config, data);
 8002d5a:	787b      	ldrb	r3, [r7, #1]
 8002d5c:	4619      	mov	r1, r3
 8002d5e:	6878      	ldr	r0, [r7, #4]
 8002d60:	f7ff ffad 	bl	8002cbe <I2C_Master_Send_Byte>
	I2C_Master_Stop(config);
 8002d64:	6878      	ldr	r0, [r7, #4]
 8002d66:	f7ff ffcb 	bl	8002d00 <I2C_Master_Stop>
}
 8002d6a:	bf00      	nop
 8002d6c:	3708      	adds	r7, #8
 8002d6e:	46bd      	mov	sp, r7
 8002d70:	bd80      	pop	{r7, pc}
	...

08002d74 <I2C_Master_Read_Registers_Bulk>:
	I2C_Master_Stop(config);
	return temp;
}

void I2C_Master_Read_Registers_Bulk(I2C_Config *config, uint8_t device_address, uint8_t reg_address,volatile uint8_t *data, uint16_t length)
{
 8002d74:	b580      	push	{r7, lr}
 8002d76:	b084      	sub	sp, #16
 8002d78:	af00      	add	r7, sp, #0
 8002d7a:	60f8      	str	r0, [r7, #12]
 8002d7c:	607b      	str	r3, [r7, #4]
 8002d7e:	460b      	mov	r3, r1
 8002d80:	72fb      	strb	r3, [r7, #11]
 8002d82:	4613      	mov	r3, r2
 8002d84:	72bb      	strb	r3, [r7, #10]
		xI2C1_RX.memory_address = (uint32_t)&data[0];
 8002d86:	687b      	ldr	r3, [r7, #4]
 8002d88:	4a1c      	ldr	r2, [pc, #112]	@ (8002dfc <I2C_Master_Read_Registers_Bulk+0x88>)
 8002d8a:	6313      	str	r3, [r2, #48]	@ 0x30
		xI2C1_RX.peripheral_address = (uint32_t)&config->Port->DR;
 8002d8c:	68fb      	ldr	r3, [r7, #12]
 8002d8e:	681b      	ldr	r3, [r3, #0]
 8002d90:	3310      	adds	r3, #16
 8002d92:	461a      	mov	r2, r3
 8002d94:	4b19      	ldr	r3, [pc, #100]	@ (8002dfc <I2C_Master_Read_Registers_Bulk+0x88>)
 8002d96:	62da      	str	r2, [r3, #44]	@ 0x2c
		xI2C1_RX.buffer_length = length;
 8002d98:	4a18      	ldr	r2, [pc, #96]	@ (8002dfc <I2C_Master_Read_Registers_Bulk+0x88>)
 8002d9a:	8b3b      	ldrh	r3, [r7, #24]
 8002d9c:	8693      	strh	r3, [r2, #52]	@ 0x34
		DMA_Set_Target(&xI2C1_RX);
 8002d9e:	4817      	ldr	r0, [pc, #92]	@ (8002dfc <I2C_Master_Read_Registers_Bulk+0x88>)
 8002da0:	f7ff f9d2 	bl	8002148 <DMA_Set_Target>
		I2C_Master_Start(config);
 8002da4:	68f8      	ldr	r0, [r7, #12]
 8002da6:	f7ff ff27 	bl	8002bf8 <I2C_Master_Start>

		I2C_Master_Address(config, device_address, 0);
 8002daa:	7afb      	ldrb	r3, [r7, #11]
 8002dac:	2200      	movs	r2, #0
 8002dae:	4619      	mov	r1, r3
 8002db0:	68f8      	ldr	r0, [r7, #12]
 8002db2:	f7ff ff50 	bl	8002c56 <I2C_Master_Address>
		config->Port->CR1 |= I2C_CR1_ACK;
 8002db6:	68fb      	ldr	r3, [r7, #12]
 8002db8:	681b      	ldr	r3, [r3, #0]
 8002dba:	681a      	ldr	r2, [r3, #0]
 8002dbc:	68fb      	ldr	r3, [r7, #12]
 8002dbe:	681b      	ldr	r3, [r3, #0]
 8002dc0:	f442 6280 	orr.w	r2, r2, #1024	@ 0x400
 8002dc4:	601a      	str	r2, [r3, #0]
		I2C_Master_Send_Byte(config, reg_address);
 8002dc6:	7abb      	ldrb	r3, [r7, #10]
 8002dc8:	4619      	mov	r1, r3
 8002dca:	68f8      	ldr	r0, [r7, #12]
 8002dcc:	f7ff ff77 	bl	8002cbe <I2C_Master_Send_Byte>
		I2C_Master_Stop(config);
 8002dd0:	68f8      	ldr	r0, [r7, #12]
 8002dd2:	f7ff ff95 	bl	8002d00 <I2C_Master_Stop>
		I2C_Master_Start(config);
 8002dd6:	68f8      	ldr	r0, [r7, #12]
 8002dd8:	f7ff ff0e 	bl	8002bf8 <I2C_Master_Start>
		I2C_Master_Address(config, device_address, 1);
 8002ddc:	7afb      	ldrb	r3, [r7, #11]
 8002dde:	2201      	movs	r2, #1
 8002de0:	4619      	mov	r1, r3
 8002de2:	68f8      	ldr	r0, [r7, #12]
 8002de4:	f7ff ff37 	bl	8002c56 <I2C_Master_Address>

		DMA_Set_Trigger(&xI2C1_RX);
 8002de8:	4804      	ldr	r0, [pc, #16]	@ (8002dfc <I2C_Master_Read_Registers_Bulk+0x88>)
 8002dea:	f7ff fa0d 	bl	8002208 <DMA_Set_Trigger>

//		while((I2C1_RX_DMA_Flag.Transfer_Complete_Flag == false)){}

		I2C_Master_Stop(config);
 8002dee:	68f8      	ldr	r0, [r7, #12]
 8002df0:	f7ff ff86 	bl	8002d00 <I2C_Master_Stop>

}
 8002df4:	bf00      	nop
 8002df6:	3710      	adds	r7, #16
 8002df8:	46bd      	mov	sp, r7
 8002dfa:	bd80      	pop	{r7, pc}
 8002dfc:	200002d0 	.word	0x200002d0

08002e00 <TIM1_BRK_TIM9_IRQHandler>:
Timer_Config *__timer_13_config__;
Timer_Config *__timer_14_config__;



void TIM1_BRK_TIM9_IRQHandler(void) {
 8002e00:	b580      	push	{r7, lr}
 8002e02:	af00      	add	r7, sp, #0
    if (__timer_1_config__ ->ISR_Routines.Break_ISR) {
 8002e04:	4b28      	ldr	r3, [pc, #160]	@ (8002ea8 <TIM1_BRK_TIM9_IRQHandler+0xa8>)
 8002e06:	681b      	ldr	r3, [r3, #0]
 8002e08:	f8d3 3088 	ldr.w	r3, [r3, #136]	@ 0x88
 8002e0c:	2b00      	cmp	r3, #0
 8002e0e:	d00a      	beq.n	8002e26 <TIM1_BRK_TIM9_IRQHandler+0x26>
    	__timer_1_config__ ->ISR_Routines.Break_ISR();
 8002e10:	4b25      	ldr	r3, [pc, #148]	@ (8002ea8 <TIM1_BRK_TIM9_IRQHandler+0xa8>)
 8002e12:	681b      	ldr	r3, [r3, #0]
 8002e14:	f8d3 3088 	ldr.w	r3, [r3, #136]	@ 0x88
 8002e18:	4798      	blx	r3
    	TIM1->SR &= ~TIM_SR_BIF;  // Clear the Break interrupt flag
 8002e1a:	4b24      	ldr	r3, [pc, #144]	@ (8002eac <TIM1_BRK_TIM9_IRQHandler+0xac>)
 8002e1c:	691b      	ldr	r3, [r3, #16]
 8002e1e:	4a23      	ldr	r2, [pc, #140]	@ (8002eac <TIM1_BRK_TIM9_IRQHandler+0xac>)
 8002e20:	f023 0380 	bic.w	r3, r3, #128	@ 0x80
 8002e24:	6113      	str	r3, [r2, #16]
    }

    if (__timer_9_config__ ->ISR_Routines.Capture_Compare_1_ISR){
 8002e26:	4b22      	ldr	r3, [pc, #136]	@ (8002eb0 <TIM1_BRK_TIM9_IRQHandler+0xb0>)
 8002e28:	681b      	ldr	r3, [r3, #0]
 8002e2a:	6f1b      	ldr	r3, [r3, #112]	@ 0x70
 8002e2c:	2b00      	cmp	r3, #0
 8002e2e:	d009      	beq.n	8002e44 <TIM1_BRK_TIM9_IRQHandler+0x44>
    	__timer_9_config__ ->ISR_Routines.Capture_Compare_1_ISR();
 8002e30:	4b1f      	ldr	r3, [pc, #124]	@ (8002eb0 <TIM1_BRK_TIM9_IRQHandler+0xb0>)
 8002e32:	681b      	ldr	r3, [r3, #0]
 8002e34:	6f1b      	ldr	r3, [r3, #112]	@ 0x70
 8002e36:	4798      	blx	r3
    	TIM9->SR &= ~TIM_SR_CC1IF;  // Clear the Break interrupt flag
 8002e38:	4b1e      	ldr	r3, [pc, #120]	@ (8002eb4 <TIM1_BRK_TIM9_IRQHandler+0xb4>)
 8002e3a:	691b      	ldr	r3, [r3, #16]
 8002e3c:	4a1d      	ldr	r2, [pc, #116]	@ (8002eb4 <TIM1_BRK_TIM9_IRQHandler+0xb4>)
 8002e3e:	f023 0302 	bic.w	r3, r3, #2
 8002e42:	6113      	str	r3, [r2, #16]
    }

    if (__timer_9_config__ ->ISR_Routines.Capture_Compare_2_ISR){
 8002e44:	4b1a      	ldr	r3, [pc, #104]	@ (8002eb0 <TIM1_BRK_TIM9_IRQHandler+0xb0>)
 8002e46:	681b      	ldr	r3, [r3, #0]
 8002e48:	6f5b      	ldr	r3, [r3, #116]	@ 0x74
 8002e4a:	2b00      	cmp	r3, #0
 8002e4c:	d009      	beq.n	8002e62 <TIM1_BRK_TIM9_IRQHandler+0x62>
    	__timer_9_config__ ->ISR_Routines.Capture_Compare_2_ISR();
 8002e4e:	4b18      	ldr	r3, [pc, #96]	@ (8002eb0 <TIM1_BRK_TIM9_IRQHandler+0xb0>)
 8002e50:	681b      	ldr	r3, [r3, #0]
 8002e52:	6f5b      	ldr	r3, [r3, #116]	@ 0x74
 8002e54:	4798      	blx	r3
    	TIM9->SR &= ~TIM_SR_CC2IF;  // Clear the Break interrupt flag
 8002e56:	4b17      	ldr	r3, [pc, #92]	@ (8002eb4 <TIM1_BRK_TIM9_IRQHandler+0xb4>)
 8002e58:	691b      	ldr	r3, [r3, #16]
 8002e5a:	4a16      	ldr	r2, [pc, #88]	@ (8002eb4 <TIM1_BRK_TIM9_IRQHandler+0xb4>)
 8002e5c:	f023 0304 	bic.w	r3, r3, #4
 8002e60:	6113      	str	r3, [r2, #16]
    }

    if (__timer_9_config__ ->ISR_Routines.Update_ISR){
 8002e62:	4b13      	ldr	r3, [pc, #76]	@ (8002eb0 <TIM1_BRK_TIM9_IRQHandler+0xb0>)
 8002e64:	681b      	ldr	r3, [r3, #0]
 8002e66:	6edb      	ldr	r3, [r3, #108]	@ 0x6c
 8002e68:	2b00      	cmp	r3, #0
 8002e6a:	d009      	beq.n	8002e80 <TIM1_BRK_TIM9_IRQHandler+0x80>
    	__timer_9_config__ ->ISR_Routines.Update_ISR();
 8002e6c:	4b10      	ldr	r3, [pc, #64]	@ (8002eb0 <TIM1_BRK_TIM9_IRQHandler+0xb0>)
 8002e6e:	681b      	ldr	r3, [r3, #0]
 8002e70:	6edb      	ldr	r3, [r3, #108]	@ 0x6c
 8002e72:	4798      	blx	r3
    	TIM9->SR &= ~TIM_SR_UIF;  // Clear the Break interrupt flag
 8002e74:	4b0f      	ldr	r3, [pc, #60]	@ (8002eb4 <TIM1_BRK_TIM9_IRQHandler+0xb4>)
 8002e76:	691b      	ldr	r3, [r3, #16]
 8002e78:	4a0e      	ldr	r2, [pc, #56]	@ (8002eb4 <TIM1_BRK_TIM9_IRQHandler+0xb4>)
 8002e7a:	f023 0301 	bic.w	r3, r3, #1
 8002e7e:	6113      	str	r3, [r2, #16]
    }

    if (__timer_9_config__ ->ISR_Routines.Trigger_ISR){
 8002e80:	4b0b      	ldr	r3, [pc, #44]	@ (8002eb0 <TIM1_BRK_TIM9_IRQHandler+0xb0>)
 8002e82:	681b      	ldr	r3, [r3, #0]
 8002e84:	f8d3 3084 	ldr.w	r3, [r3, #132]	@ 0x84
 8002e88:	2b00      	cmp	r3, #0
 8002e8a:	d00a      	beq.n	8002ea2 <TIM1_BRK_TIM9_IRQHandler+0xa2>
    	__timer_9_config__ ->ISR_Routines.Trigger_ISR();
 8002e8c:	4b08      	ldr	r3, [pc, #32]	@ (8002eb0 <TIM1_BRK_TIM9_IRQHandler+0xb0>)
 8002e8e:	681b      	ldr	r3, [r3, #0]
 8002e90:	f8d3 3084 	ldr.w	r3, [r3, #132]	@ 0x84
 8002e94:	4798      	blx	r3
    	TIM9->SR &= ~TIM_SR_TIF;  // Clear the Break interrupt flag
 8002e96:	4b07      	ldr	r3, [pc, #28]	@ (8002eb4 <TIM1_BRK_TIM9_IRQHandler+0xb4>)
 8002e98:	691b      	ldr	r3, [r3, #16]
 8002e9a:	4a06      	ldr	r2, [pc, #24]	@ (8002eb4 <TIM1_BRK_TIM9_IRQHandler+0xb4>)
 8002e9c:	f023 0340 	bic.w	r3, r3, #64	@ 0x40
 8002ea0:	6113      	str	r3, [r2, #16]
    }

}
 8002ea2:	bf00      	nop
 8002ea4:	bd80      	pop	{r7, pc}
 8002ea6:	bf00      	nop
 8002ea8:	20000378 	.word	0x20000378
 8002eac:	40010000 	.word	0x40010000
 8002eb0:	20000398 	.word	0x20000398
 8002eb4:	40014000 	.word	0x40014000

08002eb8 <TIM1_UP_TIM10_IRQHandler>:

void TIM1_UP_TIM10_IRQHandler(void) {
 8002eb8:	b580      	push	{r7, lr}
 8002eba:	af00      	add	r7, sp, #0
    if (__timer_1_config__ ->ISR_Routines.Update_ISR) {
 8002ebc:	4b17      	ldr	r3, [pc, #92]	@ (8002f1c <TIM1_UP_TIM10_IRQHandler+0x64>)
 8002ebe:	681b      	ldr	r3, [r3, #0]
 8002ec0:	6edb      	ldr	r3, [r3, #108]	@ 0x6c
 8002ec2:	2b00      	cmp	r3, #0
 8002ec4:	d009      	beq.n	8002eda <TIM1_UP_TIM10_IRQHandler+0x22>
    	__timer_1_config__ ->ISR_Routines.Update_ISR();
 8002ec6:	4b15      	ldr	r3, [pc, #84]	@ (8002f1c <TIM1_UP_TIM10_IRQHandler+0x64>)
 8002ec8:	681b      	ldr	r3, [r3, #0]
 8002eca:	6edb      	ldr	r3, [r3, #108]	@ 0x6c
 8002ecc:	4798      	blx	r3
    	TIM1->SR &= ~TIM_SR_UIF;  // Clear the Update interrupt flag
 8002ece:	4b14      	ldr	r3, [pc, #80]	@ (8002f20 <TIM1_UP_TIM10_IRQHandler+0x68>)
 8002ed0:	691b      	ldr	r3, [r3, #16]
 8002ed2:	4a13      	ldr	r2, [pc, #76]	@ (8002f20 <TIM1_UP_TIM10_IRQHandler+0x68>)
 8002ed4:	f023 0301 	bic.w	r3, r3, #1
 8002ed8:	6113      	str	r3, [r2, #16]
    }

    if (__timer_10_config__ ->ISR_Routines.Update_ISR) {
 8002eda:	4b12      	ldr	r3, [pc, #72]	@ (8002f24 <TIM1_UP_TIM10_IRQHandler+0x6c>)
 8002edc:	681b      	ldr	r3, [r3, #0]
 8002ede:	6edb      	ldr	r3, [r3, #108]	@ 0x6c
 8002ee0:	2b00      	cmp	r3, #0
 8002ee2:	d009      	beq.n	8002ef8 <TIM1_UP_TIM10_IRQHandler+0x40>
    	__timer_10_config__ ->ISR_Routines.Update_ISR();
 8002ee4:	4b0f      	ldr	r3, [pc, #60]	@ (8002f24 <TIM1_UP_TIM10_IRQHandler+0x6c>)
 8002ee6:	681b      	ldr	r3, [r3, #0]
 8002ee8:	6edb      	ldr	r3, [r3, #108]	@ 0x6c
 8002eea:	4798      	blx	r3
    	TIM10->SR &= ~TIM_SR_UIF;  // Clear the Update interrupt flag
 8002eec:	4b0e      	ldr	r3, [pc, #56]	@ (8002f28 <TIM1_UP_TIM10_IRQHandler+0x70>)
 8002eee:	691b      	ldr	r3, [r3, #16]
 8002ef0:	4a0d      	ldr	r2, [pc, #52]	@ (8002f28 <TIM1_UP_TIM10_IRQHandler+0x70>)
 8002ef2:	f023 0301 	bic.w	r3, r3, #1
 8002ef6:	6113      	str	r3, [r2, #16]
    }

    if (__timer_10_config__ ->ISR_Routines.Capture_Compare_1_ISR) {
 8002ef8:	4b0a      	ldr	r3, [pc, #40]	@ (8002f24 <TIM1_UP_TIM10_IRQHandler+0x6c>)
 8002efa:	681b      	ldr	r3, [r3, #0]
 8002efc:	6f1b      	ldr	r3, [r3, #112]	@ 0x70
 8002efe:	2b00      	cmp	r3, #0
 8002f00:	d009      	beq.n	8002f16 <TIM1_UP_TIM10_IRQHandler+0x5e>
    	__timer_10_config__ ->ISR_Routines.Capture_Compare_1_ISR();
 8002f02:	4b08      	ldr	r3, [pc, #32]	@ (8002f24 <TIM1_UP_TIM10_IRQHandler+0x6c>)
 8002f04:	681b      	ldr	r3, [r3, #0]
 8002f06:	6f1b      	ldr	r3, [r3, #112]	@ 0x70
 8002f08:	4798      	blx	r3
    	TIM10->SR &= ~TIM_SR_CC1IF;  // Clear the Update interrupt flag
 8002f0a:	4b07      	ldr	r3, [pc, #28]	@ (8002f28 <TIM1_UP_TIM10_IRQHandler+0x70>)
 8002f0c:	691b      	ldr	r3, [r3, #16]
 8002f0e:	4a06      	ldr	r2, [pc, #24]	@ (8002f28 <TIM1_UP_TIM10_IRQHandler+0x70>)
 8002f10:	f023 0302 	bic.w	r3, r3, #2
 8002f14:	6113      	str	r3, [r2, #16]
    }

}
 8002f16:	bf00      	nop
 8002f18:	bd80      	pop	{r7, pc}
 8002f1a:	bf00      	nop
 8002f1c:	20000378 	.word	0x20000378
 8002f20:	40010000 	.word	0x40010000
 8002f24:	2000039c 	.word	0x2000039c
 8002f28:	40014400 	.word	0x40014400

08002f2c <TIM1_TRG_COM_TIM11_IRQHandler>:

void TIM1_TRG_COM_TIM11_IRQHandler(void) {
 8002f2c:	b580      	push	{r7, lr}
 8002f2e:	af00      	add	r7, sp, #0
    if (__timer_1_config__ ->ISR_Routines.Trigger_ISR) {
 8002f30:	4b20      	ldr	r3, [pc, #128]	@ (8002fb4 <TIM1_TRG_COM_TIM11_IRQHandler+0x88>)
 8002f32:	681b      	ldr	r3, [r3, #0]
 8002f34:	f8d3 3084 	ldr.w	r3, [r3, #132]	@ 0x84
 8002f38:	2b00      	cmp	r3, #0
 8002f3a:	d00a      	beq.n	8002f52 <TIM1_TRG_COM_TIM11_IRQHandler+0x26>
    	__timer_1_config__ ->ISR_Routines.Trigger_ISR();
 8002f3c:	4b1d      	ldr	r3, [pc, #116]	@ (8002fb4 <TIM1_TRG_COM_TIM11_IRQHandler+0x88>)
 8002f3e:	681b      	ldr	r3, [r3, #0]
 8002f40:	f8d3 3084 	ldr.w	r3, [r3, #132]	@ 0x84
 8002f44:	4798      	blx	r3

    	TIM1->SR &= ~TIM_SR_TIF;  // Clear the Trigger interrupt flag
 8002f46:	4b1c      	ldr	r3, [pc, #112]	@ (8002fb8 <TIM1_TRG_COM_TIM11_IRQHandler+0x8c>)
 8002f48:	691b      	ldr	r3, [r3, #16]
 8002f4a:	4a1b      	ldr	r2, [pc, #108]	@ (8002fb8 <TIM1_TRG_COM_TIM11_IRQHandler+0x8c>)
 8002f4c:	f023 0340 	bic.w	r3, r3, #64	@ 0x40
 8002f50:	6113      	str	r3, [r2, #16]
    }

    if (__timer_1_config__ ->ISR_Routines.Commutation_ISR) {
 8002f52:	4b18      	ldr	r3, [pc, #96]	@ (8002fb4 <TIM1_TRG_COM_TIM11_IRQHandler+0x88>)
 8002f54:	681b      	ldr	r3, [r3, #0]
 8002f56:	f8d3 3080 	ldr.w	r3, [r3, #128]	@ 0x80
 8002f5a:	2b00      	cmp	r3, #0
 8002f5c:	d00a      	beq.n	8002f74 <TIM1_TRG_COM_TIM11_IRQHandler+0x48>
    	__timer_1_config__ ->ISR_Routines.Commutation_ISR();
 8002f5e:	4b15      	ldr	r3, [pc, #84]	@ (8002fb4 <TIM1_TRG_COM_TIM11_IRQHandler+0x88>)
 8002f60:	681b      	ldr	r3, [r3, #0]
 8002f62:	f8d3 3080 	ldr.w	r3, [r3, #128]	@ 0x80
 8002f66:	4798      	blx	r3

    	TIM1->SR &= ~TIM_SR_COMIF;  // Clear the Trigger interrupt flag
 8002f68:	4b13      	ldr	r3, [pc, #76]	@ (8002fb8 <TIM1_TRG_COM_TIM11_IRQHandler+0x8c>)
 8002f6a:	691b      	ldr	r3, [r3, #16]
 8002f6c:	4a12      	ldr	r2, [pc, #72]	@ (8002fb8 <TIM1_TRG_COM_TIM11_IRQHandler+0x8c>)
 8002f6e:	f023 0320 	bic.w	r3, r3, #32
 8002f72:	6113      	str	r3, [r2, #16]
    }

    if (__timer_11_config__ ->ISR_Routines.Update_ISR) {
 8002f74:	4b11      	ldr	r3, [pc, #68]	@ (8002fbc <TIM1_TRG_COM_TIM11_IRQHandler+0x90>)
 8002f76:	681b      	ldr	r3, [r3, #0]
 8002f78:	6edb      	ldr	r3, [r3, #108]	@ 0x6c
 8002f7a:	2b00      	cmp	r3, #0
 8002f7c:	d009      	beq.n	8002f92 <TIM1_TRG_COM_TIM11_IRQHandler+0x66>
    	__timer_11_config__ ->ISR_Routines.Update_ISR();
 8002f7e:	4b0f      	ldr	r3, [pc, #60]	@ (8002fbc <TIM1_TRG_COM_TIM11_IRQHandler+0x90>)
 8002f80:	681b      	ldr	r3, [r3, #0]
 8002f82:	6edb      	ldr	r3, [r3, #108]	@ 0x6c
 8002f84:	4798      	blx	r3
    	TIM11->SR &= ~TIM_SR_UIF;  // Clear the Update interrupt flag
 8002f86:	4b0e      	ldr	r3, [pc, #56]	@ (8002fc0 <TIM1_TRG_COM_TIM11_IRQHandler+0x94>)
 8002f88:	691b      	ldr	r3, [r3, #16]
 8002f8a:	4a0d      	ldr	r2, [pc, #52]	@ (8002fc0 <TIM1_TRG_COM_TIM11_IRQHandler+0x94>)
 8002f8c:	f023 0301 	bic.w	r3, r3, #1
 8002f90:	6113      	str	r3, [r2, #16]
    }

    if (__timer_11_config__ ->ISR_Routines.Capture_Compare_1_ISR) {
 8002f92:	4b0a      	ldr	r3, [pc, #40]	@ (8002fbc <TIM1_TRG_COM_TIM11_IRQHandler+0x90>)
 8002f94:	681b      	ldr	r3, [r3, #0]
 8002f96:	6f1b      	ldr	r3, [r3, #112]	@ 0x70
 8002f98:	2b00      	cmp	r3, #0
 8002f9a:	d009      	beq.n	8002fb0 <TIM1_TRG_COM_TIM11_IRQHandler+0x84>
    	__timer_11_config__ ->ISR_Routines.Capture_Compare_1_ISR();
 8002f9c:	4b07      	ldr	r3, [pc, #28]	@ (8002fbc <TIM1_TRG_COM_TIM11_IRQHandler+0x90>)
 8002f9e:	681b      	ldr	r3, [r3, #0]
 8002fa0:	6f1b      	ldr	r3, [r3, #112]	@ 0x70
 8002fa2:	4798      	blx	r3
    	TIM11->SR &= ~TIM_SR_CC1IF;  // Clear the Update interrupt flag
 8002fa4:	4b06      	ldr	r3, [pc, #24]	@ (8002fc0 <TIM1_TRG_COM_TIM11_IRQHandler+0x94>)
 8002fa6:	691b      	ldr	r3, [r3, #16]
 8002fa8:	4a05      	ldr	r2, [pc, #20]	@ (8002fc0 <TIM1_TRG_COM_TIM11_IRQHandler+0x94>)
 8002faa:	f023 0302 	bic.w	r3, r3, #2
 8002fae:	6113      	str	r3, [r2, #16]
    }

}
 8002fb0:	bf00      	nop
 8002fb2:	bd80      	pop	{r7, pc}
 8002fb4:	20000378 	.word	0x20000378
 8002fb8:	40010000 	.word	0x40010000
 8002fbc:	200003a0 	.word	0x200003a0
 8002fc0:	40014800 	.word	0x40014800

08002fc4 <TIM1_CC_IRQHandler>:

void TIM1_CC_IRQHandler(void) {
 8002fc4:	b580      	push	{r7, lr}
 8002fc6:	af00      	add	r7, sp, #0
    if (__timer_1_config__ ->ISR_Routines.Capture_Compare_1_ISR) {
 8002fc8:	4b1e      	ldr	r3, [pc, #120]	@ (8003044 <TIM1_CC_IRQHandler+0x80>)
 8002fca:	681b      	ldr	r3, [r3, #0]
 8002fcc:	6f1b      	ldr	r3, [r3, #112]	@ 0x70
 8002fce:	2b00      	cmp	r3, #0
 8002fd0:	d009      	beq.n	8002fe6 <TIM1_CC_IRQHandler+0x22>
    	__timer_1_config__ ->ISR_Routines.Capture_Compare_1_ISR();
 8002fd2:	4b1c      	ldr	r3, [pc, #112]	@ (8003044 <TIM1_CC_IRQHandler+0x80>)
 8002fd4:	681b      	ldr	r3, [r3, #0]
 8002fd6:	6f1b      	ldr	r3, [r3, #112]	@ 0x70
 8002fd8:	4798      	blx	r3

    	TIM1->SR &= ~TIM_SR_CC1IF;  // Clear the Capture Compare interrupt flag
 8002fda:	4b1b      	ldr	r3, [pc, #108]	@ (8003048 <TIM1_CC_IRQHandler+0x84>)
 8002fdc:	691b      	ldr	r3, [r3, #16]
 8002fde:	4a1a      	ldr	r2, [pc, #104]	@ (8003048 <TIM1_CC_IRQHandler+0x84>)
 8002fe0:	f023 0302 	bic.w	r3, r3, #2
 8002fe4:	6113      	str	r3, [r2, #16]
    }

    if (__timer_1_config__ ->ISR_Routines.Capture_Compare_2_ISR) {
 8002fe6:	4b17      	ldr	r3, [pc, #92]	@ (8003044 <TIM1_CC_IRQHandler+0x80>)
 8002fe8:	681b      	ldr	r3, [r3, #0]
 8002fea:	6f5b      	ldr	r3, [r3, #116]	@ 0x74
 8002fec:	2b00      	cmp	r3, #0
 8002fee:	d009      	beq.n	8003004 <TIM1_CC_IRQHandler+0x40>
    	__timer_1_config__ ->ISR_Routines.Capture_Compare_2_ISR();
 8002ff0:	4b14      	ldr	r3, [pc, #80]	@ (8003044 <TIM1_CC_IRQHandler+0x80>)
 8002ff2:	681b      	ldr	r3, [r3, #0]
 8002ff4:	6f5b      	ldr	r3, [r3, #116]	@ 0x74
 8002ff6:	4798      	blx	r3

    	TIM1->SR &= ~TIM_SR_CC2IF;  // Clear the Capture Compare interrupt flag
 8002ff8:	4b13      	ldr	r3, [pc, #76]	@ (8003048 <TIM1_CC_IRQHandler+0x84>)
 8002ffa:	691b      	ldr	r3, [r3, #16]
 8002ffc:	4a12      	ldr	r2, [pc, #72]	@ (8003048 <TIM1_CC_IRQHandler+0x84>)
 8002ffe:	f023 0304 	bic.w	r3, r3, #4
 8003002:	6113      	str	r3, [r2, #16]
    }

    if (__timer_1_config__ ->ISR_Routines.Capture_Compare_3_ISR) {
 8003004:	4b0f      	ldr	r3, [pc, #60]	@ (8003044 <TIM1_CC_IRQHandler+0x80>)
 8003006:	681b      	ldr	r3, [r3, #0]
 8003008:	6f9b      	ldr	r3, [r3, #120]	@ 0x78
 800300a:	2b00      	cmp	r3, #0
 800300c:	d009      	beq.n	8003022 <TIM1_CC_IRQHandler+0x5e>
    	__timer_1_config__ ->ISR_Routines.Capture_Compare_3_ISR();
 800300e:	4b0d      	ldr	r3, [pc, #52]	@ (8003044 <TIM1_CC_IRQHandler+0x80>)
 8003010:	681b      	ldr	r3, [r3, #0]
 8003012:	6f9b      	ldr	r3, [r3, #120]	@ 0x78
 8003014:	4798      	blx	r3

    	TIM1->SR &= ~TIM_SR_CC3IF;  // Clear the Capture Compare interrupt flag
 8003016:	4b0c      	ldr	r3, [pc, #48]	@ (8003048 <TIM1_CC_IRQHandler+0x84>)
 8003018:	691b      	ldr	r3, [r3, #16]
 800301a:	4a0b      	ldr	r2, [pc, #44]	@ (8003048 <TIM1_CC_IRQHandler+0x84>)
 800301c:	f023 0308 	bic.w	r3, r3, #8
 8003020:	6113      	str	r3, [r2, #16]
    }

    if (__timer_1_config__ ->ISR_Routines.Capture_Compare_4_ISR) {
 8003022:	4b08      	ldr	r3, [pc, #32]	@ (8003044 <TIM1_CC_IRQHandler+0x80>)
 8003024:	681b      	ldr	r3, [r3, #0]
 8003026:	6fdb      	ldr	r3, [r3, #124]	@ 0x7c
 8003028:	2b00      	cmp	r3, #0
 800302a:	d009      	beq.n	8003040 <TIM1_CC_IRQHandler+0x7c>
    	__timer_1_config__ ->ISR_Routines.Capture_Compare_4_ISR();
 800302c:	4b05      	ldr	r3, [pc, #20]	@ (8003044 <TIM1_CC_IRQHandler+0x80>)
 800302e:	681b      	ldr	r3, [r3, #0]
 8003030:	6fdb      	ldr	r3, [r3, #124]	@ 0x7c
 8003032:	4798      	blx	r3

    	TIM1->SR &= ~TIM_SR_CC4IF;  // Clear the Capture Compare interrupt flag
 8003034:	4b04      	ldr	r3, [pc, #16]	@ (8003048 <TIM1_CC_IRQHandler+0x84>)
 8003036:	691b      	ldr	r3, [r3, #16]
 8003038:	4a03      	ldr	r2, [pc, #12]	@ (8003048 <TIM1_CC_IRQHandler+0x84>)
 800303a:	f023 0310 	bic.w	r3, r3, #16
 800303e:	6113      	str	r3, [r2, #16]
    }
}
 8003040:	bf00      	nop
 8003042:	bd80      	pop	{r7, pc}
 8003044:	20000378 	.word	0x20000378
 8003048:	40010000 	.word	0x40010000

0800304c <TIM2_IRQHandler>:


void TIM2_IRQHandler(void)
{
 800304c:	b580      	push	{r7, lr}
 800304e:	af00      	add	r7, sp, #0
    if (__timer_2_config__ ->ISR_Routines.Capture_Compare_1_ISR) {
 8003050:	4b34      	ldr	r3, [pc, #208]	@ (8003124 <TIM2_IRQHandler+0xd8>)
 8003052:	681b      	ldr	r3, [r3, #0]
 8003054:	6f1b      	ldr	r3, [r3, #112]	@ 0x70
 8003056:	2b00      	cmp	r3, #0
 8003058:	d00b      	beq.n	8003072 <TIM2_IRQHandler+0x26>
    	__timer_2_config__ ->ISR_Routines.Capture_Compare_1_ISR();
 800305a:	4b32      	ldr	r3, [pc, #200]	@ (8003124 <TIM2_IRQHandler+0xd8>)
 800305c:	681b      	ldr	r3, [r3, #0]
 800305e:	6f1b      	ldr	r3, [r3, #112]	@ 0x70
 8003060:	4798      	blx	r3

    	TIM2->SR &= ~TIM_SR_CC1IF;  // Clear the Capture Compare interrupt flag
 8003062:	f04f 4380 	mov.w	r3, #1073741824	@ 0x40000000
 8003066:	691b      	ldr	r3, [r3, #16]
 8003068:	f04f 4280 	mov.w	r2, #1073741824	@ 0x40000000
 800306c:	f023 0302 	bic.w	r3, r3, #2
 8003070:	6113      	str	r3, [r2, #16]
    }
    if (__timer_2_config__ ->ISR_Routines.Capture_Compare_2_ISR) {
 8003072:	4b2c      	ldr	r3, [pc, #176]	@ (8003124 <TIM2_IRQHandler+0xd8>)
 8003074:	681b      	ldr	r3, [r3, #0]
 8003076:	6f5b      	ldr	r3, [r3, #116]	@ 0x74
 8003078:	2b00      	cmp	r3, #0
 800307a:	d00b      	beq.n	8003094 <TIM2_IRQHandler+0x48>
    	__timer_2_config__ ->ISR_Routines.Capture_Compare_2_ISR();
 800307c:	4b29      	ldr	r3, [pc, #164]	@ (8003124 <TIM2_IRQHandler+0xd8>)
 800307e:	681b      	ldr	r3, [r3, #0]
 8003080:	6f5b      	ldr	r3, [r3, #116]	@ 0x74
 8003082:	4798      	blx	r3

    	TIM2->SR &= ~TIM_SR_CC2IF;  // Clear the Capture Compare interrupt flag
 8003084:	f04f 4380 	mov.w	r3, #1073741824	@ 0x40000000
 8003088:	691b      	ldr	r3, [r3, #16]
 800308a:	f04f 4280 	mov.w	r2, #1073741824	@ 0x40000000
 800308e:	f023 0304 	bic.w	r3, r3, #4
 8003092:	6113      	str	r3, [r2, #16]
    }
    if (__timer_2_config__ ->ISR_Routines.Capture_Compare_3_ISR) {
 8003094:	4b23      	ldr	r3, [pc, #140]	@ (8003124 <TIM2_IRQHandler+0xd8>)
 8003096:	681b      	ldr	r3, [r3, #0]
 8003098:	6f9b      	ldr	r3, [r3, #120]	@ 0x78
 800309a:	2b00      	cmp	r3, #0
 800309c:	d00b      	beq.n	80030b6 <TIM2_IRQHandler+0x6a>
    	__timer_2_config__ ->ISR_Routines.Capture_Compare_3_ISR();
 800309e:	4b21      	ldr	r3, [pc, #132]	@ (8003124 <TIM2_IRQHandler+0xd8>)
 80030a0:	681b      	ldr	r3, [r3, #0]
 80030a2:	6f9b      	ldr	r3, [r3, #120]	@ 0x78
 80030a4:	4798      	blx	r3

    	TIM2->SR &= ~TIM_SR_CC3IF;  // Clear the Capture Compare interrupt flag
 80030a6:	f04f 4380 	mov.w	r3, #1073741824	@ 0x40000000
 80030aa:	691b      	ldr	r3, [r3, #16]
 80030ac:	f04f 4280 	mov.w	r2, #1073741824	@ 0x40000000
 80030b0:	f023 0308 	bic.w	r3, r3, #8
 80030b4:	6113      	str	r3, [r2, #16]
    }
    if (__timer_2_config__ ->ISR_Routines.Capture_Compare_4_ISR) {
 80030b6:	4b1b      	ldr	r3, [pc, #108]	@ (8003124 <TIM2_IRQHandler+0xd8>)
 80030b8:	681b      	ldr	r3, [r3, #0]
 80030ba:	6fdb      	ldr	r3, [r3, #124]	@ 0x7c
 80030bc:	2b00      	cmp	r3, #0
 80030be:	d00b      	beq.n	80030d8 <TIM2_IRQHandler+0x8c>
    	__timer_2_config__ ->ISR_Routines.Capture_Compare_4_ISR();
 80030c0:	4b18      	ldr	r3, [pc, #96]	@ (8003124 <TIM2_IRQHandler+0xd8>)
 80030c2:	681b      	ldr	r3, [r3, #0]
 80030c4:	6fdb      	ldr	r3, [r3, #124]	@ 0x7c
 80030c6:	4798      	blx	r3

    	TIM2->SR &= ~TIM_SR_CC4IF;  // Clear the Capture Compare interrupt flag
 80030c8:	f04f 4380 	mov.w	r3, #1073741824	@ 0x40000000
 80030cc:	691b      	ldr	r3, [r3, #16]
 80030ce:	f04f 4280 	mov.w	r2, #1073741824	@ 0x40000000
 80030d2:	f023 0310 	bic.w	r3, r3, #16
 80030d6:	6113      	str	r3, [r2, #16]
    }
    if (__timer_2_config__ ->ISR_Routines.Update_ISR) {
 80030d8:	4b12      	ldr	r3, [pc, #72]	@ (8003124 <TIM2_IRQHandler+0xd8>)
 80030da:	681b      	ldr	r3, [r3, #0]
 80030dc:	6edb      	ldr	r3, [r3, #108]	@ 0x6c
 80030de:	2b00      	cmp	r3, #0
 80030e0:	d00b      	beq.n	80030fa <TIM2_IRQHandler+0xae>
    	__timer_2_config__ ->ISR_Routines.Update_ISR();
 80030e2:	4b10      	ldr	r3, [pc, #64]	@ (8003124 <TIM2_IRQHandler+0xd8>)
 80030e4:	681b      	ldr	r3, [r3, #0]
 80030e6:	6edb      	ldr	r3, [r3, #108]	@ 0x6c
 80030e8:	4798      	blx	r3

    	TIM2->SR &= ~TIM_SR_UIF;  // Clear the Capture Compare interrupt flag
 80030ea:	f04f 4380 	mov.w	r3, #1073741824	@ 0x40000000
 80030ee:	691b      	ldr	r3, [r3, #16]
 80030f0:	f04f 4280 	mov.w	r2, #1073741824	@ 0x40000000
 80030f4:	f023 0301 	bic.w	r3, r3, #1
 80030f8:	6113      	str	r3, [r2, #16]
    }
    if (__timer_2_config__ ->ISR_Routines.Trigger_ISR) {
 80030fa:	4b0a      	ldr	r3, [pc, #40]	@ (8003124 <TIM2_IRQHandler+0xd8>)
 80030fc:	681b      	ldr	r3, [r3, #0]
 80030fe:	f8d3 3084 	ldr.w	r3, [r3, #132]	@ 0x84
 8003102:	2b00      	cmp	r3, #0
 8003104:	d00c      	beq.n	8003120 <TIM2_IRQHandler+0xd4>
    	__timer_2_config__ ->ISR_Routines.Trigger_ISR();
 8003106:	4b07      	ldr	r3, [pc, #28]	@ (8003124 <TIM2_IRQHandler+0xd8>)
 8003108:	681b      	ldr	r3, [r3, #0]
 800310a:	f8d3 3084 	ldr.w	r3, [r3, #132]	@ 0x84
 800310e:	4798      	blx	r3

    	TIM2->SR &= ~TIM_SR_TIF;  // Clear the Capture Compare interrupt flag
 8003110:	f04f 4380 	mov.w	r3, #1073741824	@ 0x40000000
 8003114:	691b      	ldr	r3, [r3, #16]
 8003116:	f04f 4280 	mov.w	r2, #1073741824	@ 0x40000000
 800311a:	f023 0340 	bic.w	r3, r3, #64	@ 0x40
 800311e:	6113      	str	r3, [r2, #16]
    }
}
 8003120:	bf00      	nop
 8003122:	bd80      	pop	{r7, pc}
 8003124:	2000037c 	.word	0x2000037c

08003128 <TIM3_IRQHandler>:

void TIM3_IRQHandler(void)
{
 8003128:	b580      	push	{r7, lr}
 800312a:	af00      	add	r7, sp, #0
    if (__timer_3_config__ ->ISR_Routines.Capture_Compare_1_ISR) {
 800312c:	4b2e      	ldr	r3, [pc, #184]	@ (80031e8 <TIM3_IRQHandler+0xc0>)
 800312e:	681b      	ldr	r3, [r3, #0]
 8003130:	6f1b      	ldr	r3, [r3, #112]	@ 0x70
 8003132:	2b00      	cmp	r3, #0
 8003134:	d009      	beq.n	800314a <TIM3_IRQHandler+0x22>
    	__timer_3_config__ ->ISR_Routines.Capture_Compare_1_ISR();
 8003136:	4b2c      	ldr	r3, [pc, #176]	@ (80031e8 <TIM3_IRQHandler+0xc0>)
 8003138:	681b      	ldr	r3, [r3, #0]
 800313a:	6f1b      	ldr	r3, [r3, #112]	@ 0x70
 800313c:	4798      	blx	r3

    	TIM3->SR &= ~TIM_SR_CC1IF;  // Clear the Capture Compare interrupt flag
 800313e:	4b2b      	ldr	r3, [pc, #172]	@ (80031ec <TIM3_IRQHandler+0xc4>)
 8003140:	691b      	ldr	r3, [r3, #16]
 8003142:	4a2a      	ldr	r2, [pc, #168]	@ (80031ec <TIM3_IRQHandler+0xc4>)
 8003144:	f023 0302 	bic.w	r3, r3, #2
 8003148:	6113      	str	r3, [r2, #16]
    }
    if (__timer_3_config__ ->ISR_Routines.Capture_Compare_2_ISR) {
 800314a:	4b27      	ldr	r3, [pc, #156]	@ (80031e8 <TIM3_IRQHandler+0xc0>)
 800314c:	681b      	ldr	r3, [r3, #0]
 800314e:	6f5b      	ldr	r3, [r3, #116]	@ 0x74
 8003150:	2b00      	cmp	r3, #0
 8003152:	d009      	beq.n	8003168 <TIM3_IRQHandler+0x40>
    	__timer_3_config__ ->ISR_Routines.Capture_Compare_2_ISR();
 8003154:	4b24      	ldr	r3, [pc, #144]	@ (80031e8 <TIM3_IRQHandler+0xc0>)
 8003156:	681b      	ldr	r3, [r3, #0]
 8003158:	6f5b      	ldr	r3, [r3, #116]	@ 0x74
 800315a:	4798      	blx	r3

    	TIM3->SR &= ~TIM_SR_CC2IF;  // Clear the Capture Compare interrupt flag
 800315c:	4b23      	ldr	r3, [pc, #140]	@ (80031ec <TIM3_IRQHandler+0xc4>)
 800315e:	691b      	ldr	r3, [r3, #16]
 8003160:	4a22      	ldr	r2, [pc, #136]	@ (80031ec <TIM3_IRQHandler+0xc4>)
 8003162:	f023 0304 	bic.w	r3, r3, #4
 8003166:	6113      	str	r3, [r2, #16]
    }
    if (__timer_3_config__ ->ISR_Routines.Capture_Compare_3_ISR) {
 8003168:	4b1f      	ldr	r3, [pc, #124]	@ (80031e8 <TIM3_IRQHandler+0xc0>)
 800316a:	681b      	ldr	r3, [r3, #0]
 800316c:	6f9b      	ldr	r3, [r3, #120]	@ 0x78
 800316e:	2b00      	cmp	r3, #0
 8003170:	d009      	beq.n	8003186 <TIM3_IRQHandler+0x5e>
    	__timer_3_config__ ->ISR_Routines.Capture_Compare_3_ISR();
 8003172:	4b1d      	ldr	r3, [pc, #116]	@ (80031e8 <TIM3_IRQHandler+0xc0>)
 8003174:	681b      	ldr	r3, [r3, #0]
 8003176:	6f9b      	ldr	r3, [r3, #120]	@ 0x78
 8003178:	4798      	blx	r3

    	TIM3->SR &= ~TIM_SR_CC3IF;  // Clear the Capture Compare interrupt flag
 800317a:	4b1c      	ldr	r3, [pc, #112]	@ (80031ec <TIM3_IRQHandler+0xc4>)
 800317c:	691b      	ldr	r3, [r3, #16]
 800317e:	4a1b      	ldr	r2, [pc, #108]	@ (80031ec <TIM3_IRQHandler+0xc4>)
 8003180:	f023 0308 	bic.w	r3, r3, #8
 8003184:	6113      	str	r3, [r2, #16]
    }
    if (__timer_3_config__ ->ISR_Routines.Capture_Compare_4_ISR) {
 8003186:	4b18      	ldr	r3, [pc, #96]	@ (80031e8 <TIM3_IRQHandler+0xc0>)
 8003188:	681b      	ldr	r3, [r3, #0]
 800318a:	6fdb      	ldr	r3, [r3, #124]	@ 0x7c
 800318c:	2b00      	cmp	r3, #0
 800318e:	d009      	beq.n	80031a4 <TIM3_IRQHandler+0x7c>
    	__timer_3_config__ ->ISR_Routines.Capture_Compare_4_ISR();
 8003190:	4b15      	ldr	r3, [pc, #84]	@ (80031e8 <TIM3_IRQHandler+0xc0>)
 8003192:	681b      	ldr	r3, [r3, #0]
 8003194:	6fdb      	ldr	r3, [r3, #124]	@ 0x7c
 8003196:	4798      	blx	r3

    	TIM3->SR &= ~TIM_SR_CC4IF;  // Clear the Capture Compare interrupt flag
 8003198:	4b14      	ldr	r3, [pc, #80]	@ (80031ec <TIM3_IRQHandler+0xc4>)
 800319a:	691b      	ldr	r3, [r3, #16]
 800319c:	4a13      	ldr	r2, [pc, #76]	@ (80031ec <TIM3_IRQHandler+0xc4>)
 800319e:	f023 0310 	bic.w	r3, r3, #16
 80031a2:	6113      	str	r3, [r2, #16]
    }
    if (__timer_3_config__ ->ISR_Routines.Update_ISR) {
 80031a4:	4b10      	ldr	r3, [pc, #64]	@ (80031e8 <TIM3_IRQHandler+0xc0>)
 80031a6:	681b      	ldr	r3, [r3, #0]
 80031a8:	6edb      	ldr	r3, [r3, #108]	@ 0x6c
 80031aa:	2b00      	cmp	r3, #0
 80031ac:	d009      	beq.n	80031c2 <TIM3_IRQHandler+0x9a>
    	__timer_3_config__ ->ISR_Routines.Update_ISR();
 80031ae:	4b0e      	ldr	r3, [pc, #56]	@ (80031e8 <TIM3_IRQHandler+0xc0>)
 80031b0:	681b      	ldr	r3, [r3, #0]
 80031b2:	6edb      	ldr	r3, [r3, #108]	@ 0x6c
 80031b4:	4798      	blx	r3

    	TIM3->SR &= ~TIM_SR_UIF;  // Clear the Capture Compare interrupt flag
 80031b6:	4b0d      	ldr	r3, [pc, #52]	@ (80031ec <TIM3_IRQHandler+0xc4>)
 80031b8:	691b      	ldr	r3, [r3, #16]
 80031ba:	4a0c      	ldr	r2, [pc, #48]	@ (80031ec <TIM3_IRQHandler+0xc4>)
 80031bc:	f023 0301 	bic.w	r3, r3, #1
 80031c0:	6113      	str	r3, [r2, #16]
    }
    if (__timer_3_config__ ->ISR_Routines.Trigger_ISR) {
 80031c2:	4b09      	ldr	r3, [pc, #36]	@ (80031e8 <TIM3_IRQHandler+0xc0>)
 80031c4:	681b      	ldr	r3, [r3, #0]
 80031c6:	f8d3 3084 	ldr.w	r3, [r3, #132]	@ 0x84
 80031ca:	2b00      	cmp	r3, #0
 80031cc:	d00a      	beq.n	80031e4 <TIM3_IRQHandler+0xbc>
    	__timer_3_config__ ->ISR_Routines.Trigger_ISR();
 80031ce:	4b06      	ldr	r3, [pc, #24]	@ (80031e8 <TIM3_IRQHandler+0xc0>)
 80031d0:	681b      	ldr	r3, [r3, #0]
 80031d2:	f8d3 3084 	ldr.w	r3, [r3, #132]	@ 0x84
 80031d6:	4798      	blx	r3

    	TIM3->SR &= ~TIM_SR_TIF;  // Clear the Capture Compare interrupt flag
 80031d8:	4b04      	ldr	r3, [pc, #16]	@ (80031ec <TIM3_IRQHandler+0xc4>)
 80031da:	691b      	ldr	r3, [r3, #16]
 80031dc:	4a03      	ldr	r2, [pc, #12]	@ (80031ec <TIM3_IRQHandler+0xc4>)
 80031de:	f023 0340 	bic.w	r3, r3, #64	@ 0x40
 80031e2:	6113      	str	r3, [r2, #16]
    }
}
 80031e4:	bf00      	nop
 80031e6:	bd80      	pop	{r7, pc}
 80031e8:	20000380 	.word	0x20000380
 80031ec:	40000400 	.word	0x40000400

080031f0 <TIM4_IRQHandler>:

void TIM4_IRQHandler(void)
{
 80031f0:	b580      	push	{r7, lr}
 80031f2:	af00      	add	r7, sp, #0
    if (__timer_4_config__ ->ISR_Routines.Capture_Compare_1_ISR) {
 80031f4:	4b2e      	ldr	r3, [pc, #184]	@ (80032b0 <TIM4_IRQHandler+0xc0>)
 80031f6:	681b      	ldr	r3, [r3, #0]
 80031f8:	6f1b      	ldr	r3, [r3, #112]	@ 0x70
 80031fa:	2b00      	cmp	r3, #0
 80031fc:	d009      	beq.n	8003212 <TIM4_IRQHandler+0x22>
    	__timer_4_config__ ->ISR_Routines.Capture_Compare_1_ISR();
 80031fe:	4b2c      	ldr	r3, [pc, #176]	@ (80032b0 <TIM4_IRQHandler+0xc0>)
 8003200:	681b      	ldr	r3, [r3, #0]
 8003202:	6f1b      	ldr	r3, [r3, #112]	@ 0x70
 8003204:	4798      	blx	r3

    	TIM4->SR &= ~TIM_SR_CC1IF;  // Clear the Capture Compare interrupt flag
 8003206:	4b2b      	ldr	r3, [pc, #172]	@ (80032b4 <TIM4_IRQHandler+0xc4>)
 8003208:	691b      	ldr	r3, [r3, #16]
 800320a:	4a2a      	ldr	r2, [pc, #168]	@ (80032b4 <TIM4_IRQHandler+0xc4>)
 800320c:	f023 0302 	bic.w	r3, r3, #2
 8003210:	6113      	str	r3, [r2, #16]
    }
    if (__timer_4_config__ ->ISR_Routines.Capture_Compare_2_ISR) {
 8003212:	4b27      	ldr	r3, [pc, #156]	@ (80032b0 <TIM4_IRQHandler+0xc0>)
 8003214:	681b      	ldr	r3, [r3, #0]
 8003216:	6f5b      	ldr	r3, [r3, #116]	@ 0x74
 8003218:	2b00      	cmp	r3, #0
 800321a:	d009      	beq.n	8003230 <TIM4_IRQHandler+0x40>
    	__timer_4_config__ ->ISR_Routines.Capture_Compare_2_ISR();
 800321c:	4b24      	ldr	r3, [pc, #144]	@ (80032b0 <TIM4_IRQHandler+0xc0>)
 800321e:	681b      	ldr	r3, [r3, #0]
 8003220:	6f5b      	ldr	r3, [r3, #116]	@ 0x74
 8003222:	4798      	blx	r3

    	TIM4->SR &= ~TIM_SR_CC2IF;  // Clear the Capture Compare interrupt flag
 8003224:	4b23      	ldr	r3, [pc, #140]	@ (80032b4 <TIM4_IRQHandler+0xc4>)
 8003226:	691b      	ldr	r3, [r3, #16]
 8003228:	4a22      	ldr	r2, [pc, #136]	@ (80032b4 <TIM4_IRQHandler+0xc4>)
 800322a:	f023 0304 	bic.w	r3, r3, #4
 800322e:	6113      	str	r3, [r2, #16]
    }
    if (__timer_4_config__ ->ISR_Routines.Capture_Compare_3_ISR) {
 8003230:	4b1f      	ldr	r3, [pc, #124]	@ (80032b0 <TIM4_IRQHandler+0xc0>)
 8003232:	681b      	ldr	r3, [r3, #0]
 8003234:	6f9b      	ldr	r3, [r3, #120]	@ 0x78
 8003236:	2b00      	cmp	r3, #0
 8003238:	d009      	beq.n	800324e <TIM4_IRQHandler+0x5e>
    	__timer_4_config__ ->ISR_Routines.Capture_Compare_3_ISR();
 800323a:	4b1d      	ldr	r3, [pc, #116]	@ (80032b0 <TIM4_IRQHandler+0xc0>)
 800323c:	681b      	ldr	r3, [r3, #0]
 800323e:	6f9b      	ldr	r3, [r3, #120]	@ 0x78
 8003240:	4798      	blx	r3

    	TIM4->SR &= ~TIM_SR_CC3IF;  // Clear the Capture Compare interrupt flag
 8003242:	4b1c      	ldr	r3, [pc, #112]	@ (80032b4 <TIM4_IRQHandler+0xc4>)
 8003244:	691b      	ldr	r3, [r3, #16]
 8003246:	4a1b      	ldr	r2, [pc, #108]	@ (80032b4 <TIM4_IRQHandler+0xc4>)
 8003248:	f023 0308 	bic.w	r3, r3, #8
 800324c:	6113      	str	r3, [r2, #16]
    }
    if (__timer_4_config__ ->ISR_Routines.Capture_Compare_4_ISR) {
 800324e:	4b18      	ldr	r3, [pc, #96]	@ (80032b0 <TIM4_IRQHandler+0xc0>)
 8003250:	681b      	ldr	r3, [r3, #0]
 8003252:	6fdb      	ldr	r3, [r3, #124]	@ 0x7c
 8003254:	2b00      	cmp	r3, #0
 8003256:	d009      	beq.n	800326c <TIM4_IRQHandler+0x7c>
    	__timer_4_config__ ->ISR_Routines.Capture_Compare_4_ISR();
 8003258:	4b15      	ldr	r3, [pc, #84]	@ (80032b0 <TIM4_IRQHandler+0xc0>)
 800325a:	681b      	ldr	r3, [r3, #0]
 800325c:	6fdb      	ldr	r3, [r3, #124]	@ 0x7c
 800325e:	4798      	blx	r3

    	TIM4->SR &= ~TIM_SR_CC4IF;  // Clear the Capture Compare interrupt flag
 8003260:	4b14      	ldr	r3, [pc, #80]	@ (80032b4 <TIM4_IRQHandler+0xc4>)
 8003262:	691b      	ldr	r3, [r3, #16]
 8003264:	4a13      	ldr	r2, [pc, #76]	@ (80032b4 <TIM4_IRQHandler+0xc4>)
 8003266:	f023 0310 	bic.w	r3, r3, #16
 800326a:	6113      	str	r3, [r2, #16]
    }
    if (__timer_4_config__ ->ISR_Routines.Update_ISR) {
 800326c:	4b10      	ldr	r3, [pc, #64]	@ (80032b0 <TIM4_IRQHandler+0xc0>)
 800326e:	681b      	ldr	r3, [r3, #0]
 8003270:	6edb      	ldr	r3, [r3, #108]	@ 0x6c
 8003272:	2b00      	cmp	r3, #0
 8003274:	d009      	beq.n	800328a <TIM4_IRQHandler+0x9a>
    	__timer_4_config__ ->ISR_Routines.Update_ISR();
 8003276:	4b0e      	ldr	r3, [pc, #56]	@ (80032b0 <TIM4_IRQHandler+0xc0>)
 8003278:	681b      	ldr	r3, [r3, #0]
 800327a:	6edb      	ldr	r3, [r3, #108]	@ 0x6c
 800327c:	4798      	blx	r3

    	TIM4->SR &= ~TIM_SR_UIF;  // Clear the Capture Compare interrupt flag
 800327e:	4b0d      	ldr	r3, [pc, #52]	@ (80032b4 <TIM4_IRQHandler+0xc4>)
 8003280:	691b      	ldr	r3, [r3, #16]
 8003282:	4a0c      	ldr	r2, [pc, #48]	@ (80032b4 <TIM4_IRQHandler+0xc4>)
 8003284:	f023 0301 	bic.w	r3, r3, #1
 8003288:	6113      	str	r3, [r2, #16]
    }
    if (__timer_4_config__ ->ISR_Routines.Trigger_ISR) {
 800328a:	4b09      	ldr	r3, [pc, #36]	@ (80032b0 <TIM4_IRQHandler+0xc0>)
 800328c:	681b      	ldr	r3, [r3, #0]
 800328e:	f8d3 3084 	ldr.w	r3, [r3, #132]	@ 0x84
 8003292:	2b00      	cmp	r3, #0
 8003294:	d00a      	beq.n	80032ac <TIM4_IRQHandler+0xbc>
    	__timer_4_config__ ->ISR_Routines.Trigger_ISR();
 8003296:	4b06      	ldr	r3, [pc, #24]	@ (80032b0 <TIM4_IRQHandler+0xc0>)
 8003298:	681b      	ldr	r3, [r3, #0]
 800329a:	f8d3 3084 	ldr.w	r3, [r3, #132]	@ 0x84
 800329e:	4798      	blx	r3

    	TIM4->SR &= ~TIM_SR_TIF;  // Clear the Capture Compare interrupt flag
 80032a0:	4b04      	ldr	r3, [pc, #16]	@ (80032b4 <TIM4_IRQHandler+0xc4>)
 80032a2:	691b      	ldr	r3, [r3, #16]
 80032a4:	4a03      	ldr	r2, [pc, #12]	@ (80032b4 <TIM4_IRQHandler+0xc4>)
 80032a6:	f023 0340 	bic.w	r3, r3, #64	@ 0x40
 80032aa:	6113      	str	r3, [r2, #16]
    }
}
 80032ac:	bf00      	nop
 80032ae:	bd80      	pop	{r7, pc}
 80032b0:	20000384 	.word	0x20000384
 80032b4:	40000800 	.word	0x40000800

080032b8 <TIM5_IRQHandler>:

void TIM5_IRQHandler(void)
{
 80032b8:	b580      	push	{r7, lr}
 80032ba:	af00      	add	r7, sp, #0
    if (__timer_5_config__ ->ISR_Routines.Capture_Compare_1_ISR) {
 80032bc:	4b2e      	ldr	r3, [pc, #184]	@ (8003378 <TIM5_IRQHandler+0xc0>)
 80032be:	681b      	ldr	r3, [r3, #0]
 80032c0:	6f1b      	ldr	r3, [r3, #112]	@ 0x70
 80032c2:	2b00      	cmp	r3, #0
 80032c4:	d009      	beq.n	80032da <TIM5_IRQHandler+0x22>
    	__timer_5_config__ ->ISR_Routines.Capture_Compare_1_ISR();
 80032c6:	4b2c      	ldr	r3, [pc, #176]	@ (8003378 <TIM5_IRQHandler+0xc0>)
 80032c8:	681b      	ldr	r3, [r3, #0]
 80032ca:	6f1b      	ldr	r3, [r3, #112]	@ 0x70
 80032cc:	4798      	blx	r3

    	TIM5->SR &= ~TIM_SR_CC1IF;  // Clear the Capture Compare interrupt flag
 80032ce:	4b2b      	ldr	r3, [pc, #172]	@ (800337c <TIM5_IRQHandler+0xc4>)
 80032d0:	691b      	ldr	r3, [r3, #16]
 80032d2:	4a2a      	ldr	r2, [pc, #168]	@ (800337c <TIM5_IRQHandler+0xc4>)
 80032d4:	f023 0302 	bic.w	r3, r3, #2
 80032d8:	6113      	str	r3, [r2, #16]
    }
    if (__timer_5_config__ ->ISR_Routines.Capture_Compare_2_ISR) {
 80032da:	4b27      	ldr	r3, [pc, #156]	@ (8003378 <TIM5_IRQHandler+0xc0>)
 80032dc:	681b      	ldr	r3, [r3, #0]
 80032de:	6f5b      	ldr	r3, [r3, #116]	@ 0x74
 80032e0:	2b00      	cmp	r3, #0
 80032e2:	d009      	beq.n	80032f8 <TIM5_IRQHandler+0x40>
    	__timer_5_config__ ->ISR_Routines.Capture_Compare_2_ISR();
 80032e4:	4b24      	ldr	r3, [pc, #144]	@ (8003378 <TIM5_IRQHandler+0xc0>)
 80032e6:	681b      	ldr	r3, [r3, #0]
 80032e8:	6f5b      	ldr	r3, [r3, #116]	@ 0x74
 80032ea:	4798      	blx	r3

    	TIM5->SR &= ~TIM_SR_CC2IF;  // Clear the Capture Compare interrupt flag
 80032ec:	4b23      	ldr	r3, [pc, #140]	@ (800337c <TIM5_IRQHandler+0xc4>)
 80032ee:	691b      	ldr	r3, [r3, #16]
 80032f0:	4a22      	ldr	r2, [pc, #136]	@ (800337c <TIM5_IRQHandler+0xc4>)
 80032f2:	f023 0304 	bic.w	r3, r3, #4
 80032f6:	6113      	str	r3, [r2, #16]
    }
    if (__timer_5_config__ ->ISR_Routines.Capture_Compare_3_ISR) {
 80032f8:	4b1f      	ldr	r3, [pc, #124]	@ (8003378 <TIM5_IRQHandler+0xc0>)
 80032fa:	681b      	ldr	r3, [r3, #0]
 80032fc:	6f9b      	ldr	r3, [r3, #120]	@ 0x78
 80032fe:	2b00      	cmp	r3, #0
 8003300:	d009      	beq.n	8003316 <TIM5_IRQHandler+0x5e>
    	__timer_5_config__ ->ISR_Routines.Capture_Compare_3_ISR();
 8003302:	4b1d      	ldr	r3, [pc, #116]	@ (8003378 <TIM5_IRQHandler+0xc0>)
 8003304:	681b      	ldr	r3, [r3, #0]
 8003306:	6f9b      	ldr	r3, [r3, #120]	@ 0x78
 8003308:	4798      	blx	r3

    	TIM5->SR &= ~TIM_SR_CC3IF;  // Clear the Capture Compare interrupt flag
 800330a:	4b1c      	ldr	r3, [pc, #112]	@ (800337c <TIM5_IRQHandler+0xc4>)
 800330c:	691b      	ldr	r3, [r3, #16]
 800330e:	4a1b      	ldr	r2, [pc, #108]	@ (800337c <TIM5_IRQHandler+0xc4>)
 8003310:	f023 0308 	bic.w	r3, r3, #8
 8003314:	6113      	str	r3, [r2, #16]
    }
    if (__timer_5_config__ ->ISR_Routines.Capture_Compare_4_ISR) {
 8003316:	4b18      	ldr	r3, [pc, #96]	@ (8003378 <TIM5_IRQHandler+0xc0>)
 8003318:	681b      	ldr	r3, [r3, #0]
 800331a:	6fdb      	ldr	r3, [r3, #124]	@ 0x7c
 800331c:	2b00      	cmp	r3, #0
 800331e:	d009      	beq.n	8003334 <TIM5_IRQHandler+0x7c>
    	__timer_5_config__ ->ISR_Routines.Capture_Compare_4_ISR();
 8003320:	4b15      	ldr	r3, [pc, #84]	@ (8003378 <TIM5_IRQHandler+0xc0>)
 8003322:	681b      	ldr	r3, [r3, #0]
 8003324:	6fdb      	ldr	r3, [r3, #124]	@ 0x7c
 8003326:	4798      	blx	r3

    	TIM5->SR &= ~TIM_SR_CC4IF;  // Clear the Capture Compare interrupt flag
 8003328:	4b14      	ldr	r3, [pc, #80]	@ (800337c <TIM5_IRQHandler+0xc4>)
 800332a:	691b      	ldr	r3, [r3, #16]
 800332c:	4a13      	ldr	r2, [pc, #76]	@ (800337c <TIM5_IRQHandler+0xc4>)
 800332e:	f023 0310 	bic.w	r3, r3, #16
 8003332:	6113      	str	r3, [r2, #16]
    }
    if (__timer_5_config__ ->ISR_Routines.Update_ISR) {
 8003334:	4b10      	ldr	r3, [pc, #64]	@ (8003378 <TIM5_IRQHandler+0xc0>)
 8003336:	681b      	ldr	r3, [r3, #0]
 8003338:	6edb      	ldr	r3, [r3, #108]	@ 0x6c
 800333a:	2b00      	cmp	r3, #0
 800333c:	d009      	beq.n	8003352 <TIM5_IRQHandler+0x9a>
    	__timer_5_config__ ->ISR_Routines.Update_ISR();
 800333e:	4b0e      	ldr	r3, [pc, #56]	@ (8003378 <TIM5_IRQHandler+0xc0>)
 8003340:	681b      	ldr	r3, [r3, #0]
 8003342:	6edb      	ldr	r3, [r3, #108]	@ 0x6c
 8003344:	4798      	blx	r3

    	TIM5->SR &= ~TIM_SR_UIF;  // Clear the Capture Compare interrupt flag
 8003346:	4b0d      	ldr	r3, [pc, #52]	@ (800337c <TIM5_IRQHandler+0xc4>)
 8003348:	691b      	ldr	r3, [r3, #16]
 800334a:	4a0c      	ldr	r2, [pc, #48]	@ (800337c <TIM5_IRQHandler+0xc4>)
 800334c:	f023 0301 	bic.w	r3, r3, #1
 8003350:	6113      	str	r3, [r2, #16]
    }
    if (__timer_5_config__ ->ISR_Routines.Trigger_ISR) {
 8003352:	4b09      	ldr	r3, [pc, #36]	@ (8003378 <TIM5_IRQHandler+0xc0>)
 8003354:	681b      	ldr	r3, [r3, #0]
 8003356:	f8d3 3084 	ldr.w	r3, [r3, #132]	@ 0x84
 800335a:	2b00      	cmp	r3, #0
 800335c:	d00a      	beq.n	8003374 <TIM5_IRQHandler+0xbc>
    	__timer_5_config__ ->ISR_Routines.Trigger_ISR();
 800335e:	4b06      	ldr	r3, [pc, #24]	@ (8003378 <TIM5_IRQHandler+0xc0>)
 8003360:	681b      	ldr	r3, [r3, #0]
 8003362:	f8d3 3084 	ldr.w	r3, [r3, #132]	@ 0x84
 8003366:	4798      	blx	r3

    	TIM5->SR &= ~TIM_SR_TIF;  // Clear the Capture Compare interrupt flag
 8003368:	4b04      	ldr	r3, [pc, #16]	@ (800337c <TIM5_IRQHandler+0xc4>)
 800336a:	691b      	ldr	r3, [r3, #16]
 800336c:	4a03      	ldr	r2, [pc, #12]	@ (800337c <TIM5_IRQHandler+0xc4>)
 800336e:	f023 0340 	bic.w	r3, r3, #64	@ 0x40
 8003372:	6113      	str	r3, [r2, #16]
    }
}
 8003374:	bf00      	nop
 8003376:	bd80      	pop	{r7, pc}
 8003378:	20000388 	.word	0x20000388
 800337c:	40000c00 	.word	0x40000c00

08003380 <TIM6_DAC_IRQHandler>:

void TIM6_DAC_IRQHandler(void)
{
 8003380:	b580      	push	{r7, lr}
 8003382:	af00      	add	r7, sp, #0
    if (__timer_6_config__->ISR_Routines.Update_ISR) {
 8003384:	4b08      	ldr	r3, [pc, #32]	@ (80033a8 <TIM6_DAC_IRQHandler+0x28>)
 8003386:	681b      	ldr	r3, [r3, #0]
 8003388:	6edb      	ldr	r3, [r3, #108]	@ 0x6c
 800338a:	2b00      	cmp	r3, #0
 800338c:	d009      	beq.n	80033a2 <TIM6_DAC_IRQHandler+0x22>
    	__timer_6_config__->ISR_Routines.Update_ISR();
 800338e:	4b06      	ldr	r3, [pc, #24]	@ (80033a8 <TIM6_DAC_IRQHandler+0x28>)
 8003390:	681b      	ldr	r3, [r3, #0]
 8003392:	6edb      	ldr	r3, [r3, #108]	@ 0x6c
 8003394:	4798      	blx	r3
    	  TIM6->SR &= ~TIM_SR_UIF;  // Clear the Capture Compare interrupt flag
 8003396:	4b05      	ldr	r3, [pc, #20]	@ (80033ac <TIM6_DAC_IRQHandler+0x2c>)
 8003398:	691b      	ldr	r3, [r3, #16]
 800339a:	4a04      	ldr	r2, [pc, #16]	@ (80033ac <TIM6_DAC_IRQHandler+0x2c>)
 800339c:	f023 0301 	bic.w	r3, r3, #1
 80033a0:	6113      	str	r3, [r2, #16]

    }

}
 80033a2:	bf00      	nop
 80033a4:	bd80      	pop	{r7, pc}
 80033a6:	bf00      	nop
 80033a8:	2000038c 	.word	0x2000038c
 80033ac:	40001000 	.word	0x40001000

080033b0 <TIM7_IRQHandler>:

void TIM7_IRQHandler(void)
{
 80033b0:	b580      	push	{r7, lr}
 80033b2:	af00      	add	r7, sp, #0
    if (__timer_7_config__->ISR_Routines.Update_ISR) {
 80033b4:	4b08      	ldr	r3, [pc, #32]	@ (80033d8 <TIM7_IRQHandler+0x28>)
 80033b6:	681b      	ldr	r3, [r3, #0]
 80033b8:	6edb      	ldr	r3, [r3, #108]	@ 0x6c
 80033ba:	2b00      	cmp	r3, #0
 80033bc:	d009      	beq.n	80033d2 <TIM7_IRQHandler+0x22>
    	__timer_7_config__->ISR_Routines.Update_ISR();
 80033be:	4b06      	ldr	r3, [pc, #24]	@ (80033d8 <TIM7_IRQHandler+0x28>)
 80033c0:	681b      	ldr	r3, [r3, #0]
 80033c2:	6edb      	ldr	r3, [r3, #108]	@ 0x6c
 80033c4:	4798      	blx	r3

    	TIM7->SR &= ~TIM_SR_UIF;  // Clear the Capture Compare interrupt flag
 80033c6:	4b05      	ldr	r3, [pc, #20]	@ (80033dc <TIM7_IRQHandler+0x2c>)
 80033c8:	691b      	ldr	r3, [r3, #16]
 80033ca:	4a04      	ldr	r2, [pc, #16]	@ (80033dc <TIM7_IRQHandler+0x2c>)
 80033cc:	f023 0301 	bic.w	r3, r3, #1
 80033d0:	6113      	str	r3, [r2, #16]
    }
}
 80033d2:	bf00      	nop
 80033d4:	bd80      	pop	{r7, pc}
 80033d6:	bf00      	nop
 80033d8:	20000390 	.word	0x20000390
 80033dc:	40001400 	.word	0x40001400

080033e0 <TIM8_BRK_TIM12_IRQHandler>:
//		(config->Interrupt_Request == Timer_Configurations.Interrupt_Request.Capture_Compare_Interrupt_4))
//{
//	NVIC_EnableIRQ(TIM8_CC_IRQn);
//}

void TIM8_BRK_TIM12_IRQHandler(void) {
 80033e0:	b580      	push	{r7, lr}
 80033e2:	af00      	add	r7, sp, #0
    if (__timer_8_config__ ->ISR_Routines.Break_ISR) {
 80033e4:	4b28      	ldr	r3, [pc, #160]	@ (8003488 <TIM8_BRK_TIM12_IRQHandler+0xa8>)
 80033e6:	681b      	ldr	r3, [r3, #0]
 80033e8:	f8d3 3088 	ldr.w	r3, [r3, #136]	@ 0x88
 80033ec:	2b00      	cmp	r3, #0
 80033ee:	d00a      	beq.n	8003406 <TIM8_BRK_TIM12_IRQHandler+0x26>
    	__timer_8_config__ ->ISR_Routines.Break_ISR();
 80033f0:	4b25      	ldr	r3, [pc, #148]	@ (8003488 <TIM8_BRK_TIM12_IRQHandler+0xa8>)
 80033f2:	681b      	ldr	r3, [r3, #0]
 80033f4:	f8d3 3088 	ldr.w	r3, [r3, #136]	@ 0x88
 80033f8:	4798      	blx	r3
    	TIM1->SR &= ~TIM_SR_BIF;  // Clear the Break interrupt flag
 80033fa:	4b24      	ldr	r3, [pc, #144]	@ (800348c <TIM8_BRK_TIM12_IRQHandler+0xac>)
 80033fc:	691b      	ldr	r3, [r3, #16]
 80033fe:	4a23      	ldr	r2, [pc, #140]	@ (800348c <TIM8_BRK_TIM12_IRQHandler+0xac>)
 8003400:	f023 0380 	bic.w	r3, r3, #128	@ 0x80
 8003404:	6113      	str	r3, [r2, #16]
    }

    if (__timer_12_config__ ->ISR_Routines.Capture_Compare_1_ISR){
 8003406:	4b22      	ldr	r3, [pc, #136]	@ (8003490 <TIM8_BRK_TIM12_IRQHandler+0xb0>)
 8003408:	681b      	ldr	r3, [r3, #0]
 800340a:	6f1b      	ldr	r3, [r3, #112]	@ 0x70
 800340c:	2b00      	cmp	r3, #0
 800340e:	d009      	beq.n	8003424 <TIM8_BRK_TIM12_IRQHandler+0x44>
    	__timer_12_config__ ->ISR_Routines.Capture_Compare_1_ISR();
 8003410:	4b1f      	ldr	r3, [pc, #124]	@ (8003490 <TIM8_BRK_TIM12_IRQHandler+0xb0>)
 8003412:	681b      	ldr	r3, [r3, #0]
 8003414:	6f1b      	ldr	r3, [r3, #112]	@ 0x70
 8003416:	4798      	blx	r3
    	TIM9->SR &= ~TIM_SR_CC1IF;  // Clear the Break interrupt flag
 8003418:	4b1e      	ldr	r3, [pc, #120]	@ (8003494 <TIM8_BRK_TIM12_IRQHandler+0xb4>)
 800341a:	691b      	ldr	r3, [r3, #16]
 800341c:	4a1d      	ldr	r2, [pc, #116]	@ (8003494 <TIM8_BRK_TIM12_IRQHandler+0xb4>)
 800341e:	f023 0302 	bic.w	r3, r3, #2
 8003422:	6113      	str	r3, [r2, #16]
    }

    if (__timer_12_config__ ->ISR_Routines.Capture_Compare_2_ISR){
 8003424:	4b1a      	ldr	r3, [pc, #104]	@ (8003490 <TIM8_BRK_TIM12_IRQHandler+0xb0>)
 8003426:	681b      	ldr	r3, [r3, #0]
 8003428:	6f5b      	ldr	r3, [r3, #116]	@ 0x74
 800342a:	2b00      	cmp	r3, #0
 800342c:	d009      	beq.n	8003442 <TIM8_BRK_TIM12_IRQHandler+0x62>
    	__timer_12_config__ ->ISR_Routines.Capture_Compare_2_ISR();
 800342e:	4b18      	ldr	r3, [pc, #96]	@ (8003490 <TIM8_BRK_TIM12_IRQHandler+0xb0>)
 8003430:	681b      	ldr	r3, [r3, #0]
 8003432:	6f5b      	ldr	r3, [r3, #116]	@ 0x74
 8003434:	4798      	blx	r3
    	TIM9->SR &= ~TIM_SR_CC2IF;  // Clear the Break interrupt flag
 8003436:	4b17      	ldr	r3, [pc, #92]	@ (8003494 <TIM8_BRK_TIM12_IRQHandler+0xb4>)
 8003438:	691b      	ldr	r3, [r3, #16]
 800343a:	4a16      	ldr	r2, [pc, #88]	@ (8003494 <TIM8_BRK_TIM12_IRQHandler+0xb4>)
 800343c:	f023 0304 	bic.w	r3, r3, #4
 8003440:	6113      	str	r3, [r2, #16]
    }

    if (__timer_12_config__ ->ISR_Routines.Update_ISR){
 8003442:	4b13      	ldr	r3, [pc, #76]	@ (8003490 <TIM8_BRK_TIM12_IRQHandler+0xb0>)
 8003444:	681b      	ldr	r3, [r3, #0]
 8003446:	6edb      	ldr	r3, [r3, #108]	@ 0x6c
 8003448:	2b00      	cmp	r3, #0
 800344a:	d009      	beq.n	8003460 <TIM8_BRK_TIM12_IRQHandler+0x80>
    	__timer_12_config__ ->ISR_Routines.Update_ISR();
 800344c:	4b10      	ldr	r3, [pc, #64]	@ (8003490 <TIM8_BRK_TIM12_IRQHandler+0xb0>)
 800344e:	681b      	ldr	r3, [r3, #0]
 8003450:	6edb      	ldr	r3, [r3, #108]	@ 0x6c
 8003452:	4798      	blx	r3
    	TIM9->SR &= ~TIM_SR_UIF;  // Clear the Break interrupt flag
 8003454:	4b0f      	ldr	r3, [pc, #60]	@ (8003494 <TIM8_BRK_TIM12_IRQHandler+0xb4>)
 8003456:	691b      	ldr	r3, [r3, #16]
 8003458:	4a0e      	ldr	r2, [pc, #56]	@ (8003494 <TIM8_BRK_TIM12_IRQHandler+0xb4>)
 800345a:	f023 0301 	bic.w	r3, r3, #1
 800345e:	6113      	str	r3, [r2, #16]
    }

    if (__timer_12_config__ ->ISR_Routines.Trigger_ISR){
 8003460:	4b0b      	ldr	r3, [pc, #44]	@ (8003490 <TIM8_BRK_TIM12_IRQHandler+0xb0>)
 8003462:	681b      	ldr	r3, [r3, #0]
 8003464:	f8d3 3084 	ldr.w	r3, [r3, #132]	@ 0x84
 8003468:	2b00      	cmp	r3, #0
 800346a:	d00a      	beq.n	8003482 <TIM8_BRK_TIM12_IRQHandler+0xa2>
    	__timer_12_config__ ->ISR_Routines.Trigger_ISR();
 800346c:	4b08      	ldr	r3, [pc, #32]	@ (8003490 <TIM8_BRK_TIM12_IRQHandler+0xb0>)
 800346e:	681b      	ldr	r3, [r3, #0]
 8003470:	f8d3 3084 	ldr.w	r3, [r3, #132]	@ 0x84
 8003474:	4798      	blx	r3
    	TIM9->SR &= ~TIM_SR_TIF;  // Clear the Break interrupt flag
 8003476:	4b07      	ldr	r3, [pc, #28]	@ (8003494 <TIM8_BRK_TIM12_IRQHandler+0xb4>)
 8003478:	691b      	ldr	r3, [r3, #16]
 800347a:	4a06      	ldr	r2, [pc, #24]	@ (8003494 <TIM8_BRK_TIM12_IRQHandler+0xb4>)
 800347c:	f023 0340 	bic.w	r3, r3, #64	@ 0x40
 8003480:	6113      	str	r3, [r2, #16]
    }

}
 8003482:	bf00      	nop
 8003484:	bd80      	pop	{r7, pc}
 8003486:	bf00      	nop
 8003488:	20000394 	.word	0x20000394
 800348c:	40010000 	.word	0x40010000
 8003490:	200003a4 	.word	0x200003a4
 8003494:	40014000 	.word	0x40014000

08003498 <TIM8_UP_TIM13_IRQHandler>:

void TIM8_UP_TIM13_IRQHandler(void) {
 8003498:	b580      	push	{r7, lr}
 800349a:	af00      	add	r7, sp, #0
    if (__timer_1_config__ ->ISR_Routines.Update_ISR) {
 800349c:	4b17      	ldr	r3, [pc, #92]	@ (80034fc <TIM8_UP_TIM13_IRQHandler+0x64>)
 800349e:	681b      	ldr	r3, [r3, #0]
 80034a0:	6edb      	ldr	r3, [r3, #108]	@ 0x6c
 80034a2:	2b00      	cmp	r3, #0
 80034a4:	d009      	beq.n	80034ba <TIM8_UP_TIM13_IRQHandler+0x22>
    	__timer_1_config__ ->ISR_Routines.Update_ISR();
 80034a6:	4b15      	ldr	r3, [pc, #84]	@ (80034fc <TIM8_UP_TIM13_IRQHandler+0x64>)
 80034a8:	681b      	ldr	r3, [r3, #0]
 80034aa:	6edb      	ldr	r3, [r3, #108]	@ 0x6c
 80034ac:	4798      	blx	r3
    	TIM1->SR &= ~TIM_SR_UIF;  // Clear the Update interrupt flag
 80034ae:	4b14      	ldr	r3, [pc, #80]	@ (8003500 <TIM8_UP_TIM13_IRQHandler+0x68>)
 80034b0:	691b      	ldr	r3, [r3, #16]
 80034b2:	4a13      	ldr	r2, [pc, #76]	@ (8003500 <TIM8_UP_TIM13_IRQHandler+0x68>)
 80034b4:	f023 0301 	bic.w	r3, r3, #1
 80034b8:	6113      	str	r3, [r2, #16]
    }

    if (__timer_13_config__ ->ISR_Routines.Update_ISR) {
 80034ba:	4b12      	ldr	r3, [pc, #72]	@ (8003504 <TIM8_UP_TIM13_IRQHandler+0x6c>)
 80034bc:	681b      	ldr	r3, [r3, #0]
 80034be:	6edb      	ldr	r3, [r3, #108]	@ 0x6c
 80034c0:	2b00      	cmp	r3, #0
 80034c2:	d009      	beq.n	80034d8 <TIM8_UP_TIM13_IRQHandler+0x40>
    	__timer_13_config__ ->ISR_Routines.Update_ISR();
 80034c4:	4b0f      	ldr	r3, [pc, #60]	@ (8003504 <TIM8_UP_TIM13_IRQHandler+0x6c>)
 80034c6:	681b      	ldr	r3, [r3, #0]
 80034c8:	6edb      	ldr	r3, [r3, #108]	@ 0x6c
 80034ca:	4798      	blx	r3
    	TIM13->SR &= ~TIM_SR_UIF;  // Clear the Update interrupt flag
 80034cc:	4b0e      	ldr	r3, [pc, #56]	@ (8003508 <TIM8_UP_TIM13_IRQHandler+0x70>)
 80034ce:	691b      	ldr	r3, [r3, #16]
 80034d0:	4a0d      	ldr	r2, [pc, #52]	@ (8003508 <TIM8_UP_TIM13_IRQHandler+0x70>)
 80034d2:	f023 0301 	bic.w	r3, r3, #1
 80034d6:	6113      	str	r3, [r2, #16]
    }

    if (__timer_13_config__ ->ISR_Routines.Capture_Compare_1_ISR) {
 80034d8:	4b0a      	ldr	r3, [pc, #40]	@ (8003504 <TIM8_UP_TIM13_IRQHandler+0x6c>)
 80034da:	681b      	ldr	r3, [r3, #0]
 80034dc:	6f1b      	ldr	r3, [r3, #112]	@ 0x70
 80034de:	2b00      	cmp	r3, #0
 80034e0:	d009      	beq.n	80034f6 <TIM8_UP_TIM13_IRQHandler+0x5e>
    	__timer_13_config__ ->ISR_Routines.Capture_Compare_1_ISR();
 80034e2:	4b08      	ldr	r3, [pc, #32]	@ (8003504 <TIM8_UP_TIM13_IRQHandler+0x6c>)
 80034e4:	681b      	ldr	r3, [r3, #0]
 80034e6:	6f1b      	ldr	r3, [r3, #112]	@ 0x70
 80034e8:	4798      	blx	r3
    	TIM13->SR &= ~TIM_SR_CC1IF;  // Clear the Update interrupt flag
 80034ea:	4b07      	ldr	r3, [pc, #28]	@ (8003508 <TIM8_UP_TIM13_IRQHandler+0x70>)
 80034ec:	691b      	ldr	r3, [r3, #16]
 80034ee:	4a06      	ldr	r2, [pc, #24]	@ (8003508 <TIM8_UP_TIM13_IRQHandler+0x70>)
 80034f0:	f023 0302 	bic.w	r3, r3, #2
 80034f4:	6113      	str	r3, [r2, #16]
    }

}
 80034f6:	bf00      	nop
 80034f8:	bd80      	pop	{r7, pc}
 80034fa:	bf00      	nop
 80034fc:	20000378 	.word	0x20000378
 8003500:	40010000 	.word	0x40010000
 8003504:	200003a8 	.word	0x200003a8
 8003508:	40001c00 	.word	0x40001c00

0800350c <TIM8_TRG_COM_TIM14_IRQHandler>:

void TIM8_TRG_COM_TIM14_IRQHandler(void) {
 800350c:	b580      	push	{r7, lr}
 800350e:	af00      	add	r7, sp, #0
    if (__timer_8_config__ ->ISR_Routines.Trigger_ISR) {
 8003510:	4b20      	ldr	r3, [pc, #128]	@ (8003594 <TIM8_TRG_COM_TIM14_IRQHandler+0x88>)
 8003512:	681b      	ldr	r3, [r3, #0]
 8003514:	f8d3 3084 	ldr.w	r3, [r3, #132]	@ 0x84
 8003518:	2b00      	cmp	r3, #0
 800351a:	d00a      	beq.n	8003532 <TIM8_TRG_COM_TIM14_IRQHandler+0x26>
    	__timer_8_config__ ->ISR_Routines.Trigger_ISR();
 800351c:	4b1d      	ldr	r3, [pc, #116]	@ (8003594 <TIM8_TRG_COM_TIM14_IRQHandler+0x88>)
 800351e:	681b      	ldr	r3, [r3, #0]
 8003520:	f8d3 3084 	ldr.w	r3, [r3, #132]	@ 0x84
 8003524:	4798      	blx	r3

    	TIM8->SR &= ~TIM_SR_TIF;  // Clear the Trigger interrupt flag
 8003526:	4b1c      	ldr	r3, [pc, #112]	@ (8003598 <TIM8_TRG_COM_TIM14_IRQHandler+0x8c>)
 8003528:	691b      	ldr	r3, [r3, #16]
 800352a:	4a1b      	ldr	r2, [pc, #108]	@ (8003598 <TIM8_TRG_COM_TIM14_IRQHandler+0x8c>)
 800352c:	f023 0340 	bic.w	r3, r3, #64	@ 0x40
 8003530:	6113      	str	r3, [r2, #16]
    }

    if (__timer_8_config__ ->ISR_Routines.Commutation_ISR) {
 8003532:	4b18      	ldr	r3, [pc, #96]	@ (8003594 <TIM8_TRG_COM_TIM14_IRQHandler+0x88>)
 8003534:	681b      	ldr	r3, [r3, #0]
 8003536:	f8d3 3080 	ldr.w	r3, [r3, #128]	@ 0x80
 800353a:	2b00      	cmp	r3, #0
 800353c:	d00a      	beq.n	8003554 <TIM8_TRG_COM_TIM14_IRQHandler+0x48>
    	__timer_8_config__ ->ISR_Routines.Commutation_ISR();
 800353e:	4b15      	ldr	r3, [pc, #84]	@ (8003594 <TIM8_TRG_COM_TIM14_IRQHandler+0x88>)
 8003540:	681b      	ldr	r3, [r3, #0]
 8003542:	f8d3 3080 	ldr.w	r3, [r3, #128]	@ 0x80
 8003546:	4798      	blx	r3

    	TIM8->SR &= ~TIM_SR_COMIF;  // Clear the Trigger interrupt flag
 8003548:	4b13      	ldr	r3, [pc, #76]	@ (8003598 <TIM8_TRG_COM_TIM14_IRQHandler+0x8c>)
 800354a:	691b      	ldr	r3, [r3, #16]
 800354c:	4a12      	ldr	r2, [pc, #72]	@ (8003598 <TIM8_TRG_COM_TIM14_IRQHandler+0x8c>)
 800354e:	f023 0320 	bic.w	r3, r3, #32
 8003552:	6113      	str	r3, [r2, #16]
    }

    if (__timer_14_config__ ->ISR_Routines.Update_ISR) {
 8003554:	4b11      	ldr	r3, [pc, #68]	@ (800359c <TIM8_TRG_COM_TIM14_IRQHandler+0x90>)
 8003556:	681b      	ldr	r3, [r3, #0]
 8003558:	6edb      	ldr	r3, [r3, #108]	@ 0x6c
 800355a:	2b00      	cmp	r3, #0
 800355c:	d009      	beq.n	8003572 <TIM8_TRG_COM_TIM14_IRQHandler+0x66>
    	__timer_14_config__ ->ISR_Routines.Update_ISR();
 800355e:	4b0f      	ldr	r3, [pc, #60]	@ (800359c <TIM8_TRG_COM_TIM14_IRQHandler+0x90>)
 8003560:	681b      	ldr	r3, [r3, #0]
 8003562:	6edb      	ldr	r3, [r3, #108]	@ 0x6c
 8003564:	4798      	blx	r3
    	TIM14->SR &= ~TIM_SR_UIF;  // Clear the Update interrupt flag
 8003566:	4b0e      	ldr	r3, [pc, #56]	@ (80035a0 <TIM8_TRG_COM_TIM14_IRQHandler+0x94>)
 8003568:	691b      	ldr	r3, [r3, #16]
 800356a:	4a0d      	ldr	r2, [pc, #52]	@ (80035a0 <TIM8_TRG_COM_TIM14_IRQHandler+0x94>)
 800356c:	f023 0301 	bic.w	r3, r3, #1
 8003570:	6113      	str	r3, [r2, #16]
    }

    if (__timer_14_config__ ->ISR_Routines.Capture_Compare_1_ISR) {
 8003572:	4b0a      	ldr	r3, [pc, #40]	@ (800359c <TIM8_TRG_COM_TIM14_IRQHandler+0x90>)
 8003574:	681b      	ldr	r3, [r3, #0]
 8003576:	6f1b      	ldr	r3, [r3, #112]	@ 0x70
 8003578:	2b00      	cmp	r3, #0
 800357a:	d009      	beq.n	8003590 <TIM8_TRG_COM_TIM14_IRQHandler+0x84>
    	__timer_14_config__ ->ISR_Routines.Capture_Compare_1_ISR();
 800357c:	4b07      	ldr	r3, [pc, #28]	@ (800359c <TIM8_TRG_COM_TIM14_IRQHandler+0x90>)
 800357e:	681b      	ldr	r3, [r3, #0]
 8003580:	6f1b      	ldr	r3, [r3, #112]	@ 0x70
 8003582:	4798      	blx	r3
    	TIM14->SR &= ~TIM_SR_CC1IF;  // Clear the Update interrupt flag
 8003584:	4b06      	ldr	r3, [pc, #24]	@ (80035a0 <TIM8_TRG_COM_TIM14_IRQHandler+0x94>)
 8003586:	691b      	ldr	r3, [r3, #16]
 8003588:	4a05      	ldr	r2, [pc, #20]	@ (80035a0 <TIM8_TRG_COM_TIM14_IRQHandler+0x94>)
 800358a:	f023 0302 	bic.w	r3, r3, #2
 800358e:	6113      	str	r3, [r2, #16]
    }

}
 8003590:	bf00      	nop
 8003592:	bd80      	pop	{r7, pc}
 8003594:	20000394 	.word	0x20000394
 8003598:	40010400 	.word	0x40010400
 800359c:	200003ac 	.word	0x200003ac
 80035a0:	40002000 	.word	0x40002000

080035a4 <TIM8_CC_IRQHandler>:

void TIM8_CC_IRQHandler(void) {
 80035a4:	b580      	push	{r7, lr}
 80035a6:	af00      	add	r7, sp, #0
    if (__timer_8_config__ ->ISR_Routines.Capture_Compare_1_ISR) {
 80035a8:	4b1e      	ldr	r3, [pc, #120]	@ (8003624 <TIM8_CC_IRQHandler+0x80>)
 80035aa:	681b      	ldr	r3, [r3, #0]
 80035ac:	6f1b      	ldr	r3, [r3, #112]	@ 0x70
 80035ae:	2b00      	cmp	r3, #0
 80035b0:	d009      	beq.n	80035c6 <TIM8_CC_IRQHandler+0x22>
    	__timer_8_config__ ->ISR_Routines.Capture_Compare_1_ISR();
 80035b2:	4b1c      	ldr	r3, [pc, #112]	@ (8003624 <TIM8_CC_IRQHandler+0x80>)
 80035b4:	681b      	ldr	r3, [r3, #0]
 80035b6:	6f1b      	ldr	r3, [r3, #112]	@ 0x70
 80035b8:	4798      	blx	r3

    	TIM8->SR &= ~TIM_SR_CC1IF;  // Clear the Capture Compare interrupt flag
 80035ba:	4b1b      	ldr	r3, [pc, #108]	@ (8003628 <TIM8_CC_IRQHandler+0x84>)
 80035bc:	691b      	ldr	r3, [r3, #16]
 80035be:	4a1a      	ldr	r2, [pc, #104]	@ (8003628 <TIM8_CC_IRQHandler+0x84>)
 80035c0:	f023 0302 	bic.w	r3, r3, #2
 80035c4:	6113      	str	r3, [r2, #16]
    }

    if (__timer_8_config__ ->ISR_Routines.Capture_Compare_2_ISR) {
 80035c6:	4b17      	ldr	r3, [pc, #92]	@ (8003624 <TIM8_CC_IRQHandler+0x80>)
 80035c8:	681b      	ldr	r3, [r3, #0]
 80035ca:	6f5b      	ldr	r3, [r3, #116]	@ 0x74
 80035cc:	2b00      	cmp	r3, #0
 80035ce:	d009      	beq.n	80035e4 <TIM8_CC_IRQHandler+0x40>
    	__timer_8_config__ ->ISR_Routines.Capture_Compare_2_ISR();
 80035d0:	4b14      	ldr	r3, [pc, #80]	@ (8003624 <TIM8_CC_IRQHandler+0x80>)
 80035d2:	681b      	ldr	r3, [r3, #0]
 80035d4:	6f5b      	ldr	r3, [r3, #116]	@ 0x74
 80035d6:	4798      	blx	r3

    	TIM8->SR &= ~TIM_SR_CC2IF;  // Clear the Capture Compare interrupt flag
 80035d8:	4b13      	ldr	r3, [pc, #76]	@ (8003628 <TIM8_CC_IRQHandler+0x84>)
 80035da:	691b      	ldr	r3, [r3, #16]
 80035dc:	4a12      	ldr	r2, [pc, #72]	@ (8003628 <TIM8_CC_IRQHandler+0x84>)
 80035de:	f023 0304 	bic.w	r3, r3, #4
 80035e2:	6113      	str	r3, [r2, #16]
    }

    if (__timer_8_config__ ->ISR_Routines.Capture_Compare_3_ISR) {
 80035e4:	4b0f      	ldr	r3, [pc, #60]	@ (8003624 <TIM8_CC_IRQHandler+0x80>)
 80035e6:	681b      	ldr	r3, [r3, #0]
 80035e8:	6f9b      	ldr	r3, [r3, #120]	@ 0x78
 80035ea:	2b00      	cmp	r3, #0
 80035ec:	d009      	beq.n	8003602 <TIM8_CC_IRQHandler+0x5e>
    	__timer_8_config__ ->ISR_Routines.Capture_Compare_3_ISR();
 80035ee:	4b0d      	ldr	r3, [pc, #52]	@ (8003624 <TIM8_CC_IRQHandler+0x80>)
 80035f0:	681b      	ldr	r3, [r3, #0]
 80035f2:	6f9b      	ldr	r3, [r3, #120]	@ 0x78
 80035f4:	4798      	blx	r3

    	TIM8->SR &= ~TIM_SR_CC3IF;  // Clear the Capture Compare interrupt flag
 80035f6:	4b0c      	ldr	r3, [pc, #48]	@ (8003628 <TIM8_CC_IRQHandler+0x84>)
 80035f8:	691b      	ldr	r3, [r3, #16]
 80035fa:	4a0b      	ldr	r2, [pc, #44]	@ (8003628 <TIM8_CC_IRQHandler+0x84>)
 80035fc:	f023 0308 	bic.w	r3, r3, #8
 8003600:	6113      	str	r3, [r2, #16]
    }

    if (__timer_8_config__ ->ISR_Routines.Capture_Compare_4_ISR) {
 8003602:	4b08      	ldr	r3, [pc, #32]	@ (8003624 <TIM8_CC_IRQHandler+0x80>)
 8003604:	681b      	ldr	r3, [r3, #0]
 8003606:	6fdb      	ldr	r3, [r3, #124]	@ 0x7c
 8003608:	2b00      	cmp	r3, #0
 800360a:	d009      	beq.n	8003620 <TIM8_CC_IRQHandler+0x7c>
    	__timer_8_config__ ->ISR_Routines.Capture_Compare_4_ISR();
 800360c:	4b05      	ldr	r3, [pc, #20]	@ (8003624 <TIM8_CC_IRQHandler+0x80>)
 800360e:	681b      	ldr	r3, [r3, #0]
 8003610:	6fdb      	ldr	r3, [r3, #124]	@ 0x7c
 8003612:	4798      	blx	r3

    	TIM8->SR &= ~TIM_SR_CC4IF;  // Clear the Capture Compare interrupt flag
 8003614:	4b04      	ldr	r3, [pc, #16]	@ (8003628 <TIM8_CC_IRQHandler+0x84>)
 8003616:	691b      	ldr	r3, [r3, #16]
 8003618:	4a03      	ldr	r2, [pc, #12]	@ (8003628 <TIM8_CC_IRQHandler+0x84>)
 800361a:	f023 0310 	bic.w	r3, r3, #16
 800361e:	6113      	str	r3, [r2, #16]
    }
}
 8003620:	bf00      	nop
 8003622:	bd80      	pop	{r7, pc}
 8003624:	20000394 	.word	0x20000394
 8003628:	40010400 	.word	0x40010400

0800362c <UART4_IRQHandler>:
USART_Config *__usart_6_config__;

volatile uint16_t USART_SR = 0;

void UART4_IRQHandler(void)
{
 800362c:	b580      	push	{r7, lr}
 800362e:	af00      	add	r7, sp, #0
	USART_SR = UART4 -> SR;
 8003630:	4b57      	ldr	r3, [pc, #348]	@ (8003790 <UART4_IRQHandler+0x164>)
 8003632:	681b      	ldr	r3, [r3, #0]
 8003634:	b29a      	uxth	r2, r3
 8003636:	4b57      	ldr	r3, [pc, #348]	@ (8003794 <UART4_IRQHandler+0x168>)
 8003638:	801a      	strh	r2, [r3, #0]
	if(USART_SR & USART_SR_CTS)
 800363a:	4b56      	ldr	r3, [pc, #344]	@ (8003794 <UART4_IRQHandler+0x168>)
 800363c:	881b      	ldrh	r3, [r3, #0]
 800363e:	b29b      	uxth	r3, r3
 8003640:	f403 7300 	and.w	r3, r3, #512	@ 0x200
 8003644:	2b00      	cmp	r3, #0
 8003646:	d010      	beq.n	800366a <UART4_IRQHandler+0x3e>
	{
	    if (__usart_4_config__ ->ISR_Routines.CTS_ISR) {
 8003648:	4b53      	ldr	r3, [pc, #332]	@ (8003798 <UART4_IRQHandler+0x16c>)
 800364a:	681b      	ldr	r3, [r3, #0]
 800364c:	f8d3 3098 	ldr.w	r3, [r3, #152]	@ 0x98
 8003650:	2b00      	cmp	r3, #0
 8003652:	d00a      	beq.n	800366a <UART4_IRQHandler+0x3e>
	    	__usart_4_config__ ->ISR_Routines.CTS_ISR();
 8003654:	4b50      	ldr	r3, [pc, #320]	@ (8003798 <UART4_IRQHandler+0x16c>)
 8003656:	681b      	ldr	r3, [r3, #0]
 8003658:	f8d3 3098 	ldr.w	r3, [r3, #152]	@ 0x98
 800365c:	4798      	blx	r3
	    	UART4->SR &= ~USART_SR_CTS;  // Clear the Break interrupt flag
 800365e:	4b4c      	ldr	r3, [pc, #304]	@ (8003790 <UART4_IRQHandler+0x164>)
 8003660:	681b      	ldr	r3, [r3, #0]
 8003662:	4a4b      	ldr	r2, [pc, #300]	@ (8003790 <UART4_IRQHandler+0x164>)
 8003664:	f423 7300 	bic.w	r3, r3, #512	@ 0x200
 8003668:	6013      	str	r3, [r2, #0]
	    }
	}

	if(USART_SR & USART_SR_LBD)
 800366a:	4b4a      	ldr	r3, [pc, #296]	@ (8003794 <UART4_IRQHandler+0x168>)
 800366c:	881b      	ldrh	r3, [r3, #0]
 800366e:	b29b      	uxth	r3, r3
 8003670:	f403 7380 	and.w	r3, r3, #256	@ 0x100
 8003674:	2b00      	cmp	r3, #0
 8003676:	d010      	beq.n	800369a <UART4_IRQHandler+0x6e>
	{
	    if (__usart_4_config__ ->ISR_Routines.LIN_Break_Detection_ISR) {
 8003678:	4b47      	ldr	r3, [pc, #284]	@ (8003798 <UART4_IRQHandler+0x16c>)
 800367a:	681b      	ldr	r3, [r3, #0]
 800367c:	f8d3 30a0 	ldr.w	r3, [r3, #160]	@ 0xa0
 8003680:	2b00      	cmp	r3, #0
 8003682:	d00a      	beq.n	800369a <UART4_IRQHandler+0x6e>
	    	__usart_4_config__ ->ISR_Routines.LIN_Break_Detection_ISR();
 8003684:	4b44      	ldr	r3, [pc, #272]	@ (8003798 <UART4_IRQHandler+0x16c>)
 8003686:	681b      	ldr	r3, [r3, #0]
 8003688:	f8d3 30a0 	ldr.w	r3, [r3, #160]	@ 0xa0
 800368c:	4798      	blx	r3
	    	UART4->SR &= ~USART_SR_LBD;  // Clear the Break interrupt flag
 800368e:	4b40      	ldr	r3, [pc, #256]	@ (8003790 <UART4_IRQHandler+0x164>)
 8003690:	681b      	ldr	r3, [r3, #0]
 8003692:	4a3f      	ldr	r2, [pc, #252]	@ (8003790 <UART4_IRQHandler+0x164>)
 8003694:	f423 7380 	bic.w	r3, r3, #256	@ 0x100
 8003698:	6013      	str	r3, [r2, #0]
	    }
	}

	if(USART_SR & USART_SR_TXE)
 800369a:	4b3e      	ldr	r3, [pc, #248]	@ (8003794 <UART4_IRQHandler+0x168>)
 800369c:	881b      	ldrh	r3, [r3, #0]
 800369e:	b29b      	uxth	r3, r3
 80036a0:	f003 0380 	and.w	r3, r3, #128	@ 0x80
 80036a4:	2b00      	cmp	r3, #0
 80036a6:	d010      	beq.n	80036ca <UART4_IRQHandler+0x9e>
	{
	    if (__usart_4_config__ ->ISR_Routines.Transmit_Empty_ISR) {
 80036a8:	4b3b      	ldr	r3, [pc, #236]	@ (8003798 <UART4_IRQHandler+0x16c>)
 80036aa:	681b      	ldr	r3, [r3, #0]
 80036ac:	f8d3 3088 	ldr.w	r3, [r3, #136]	@ 0x88
 80036b0:	2b00      	cmp	r3, #0
 80036b2:	d00a      	beq.n	80036ca <UART4_IRQHandler+0x9e>
	    	__usart_4_config__ ->ISR_Routines.Transmit_Empty_ISR();
 80036b4:	4b38      	ldr	r3, [pc, #224]	@ (8003798 <UART4_IRQHandler+0x16c>)
 80036b6:	681b      	ldr	r3, [r3, #0]
 80036b8:	f8d3 3088 	ldr.w	r3, [r3, #136]	@ 0x88
 80036bc:	4798      	blx	r3
	    	UART4->SR &= ~USART_SR_TXE;  // Clear the Break interrupt flag
 80036be:	4b34      	ldr	r3, [pc, #208]	@ (8003790 <UART4_IRQHandler+0x164>)
 80036c0:	681b      	ldr	r3, [r3, #0]
 80036c2:	4a33      	ldr	r2, [pc, #204]	@ (8003790 <UART4_IRQHandler+0x164>)
 80036c4:	f023 0380 	bic.w	r3, r3, #128	@ 0x80
 80036c8:	6013      	str	r3, [r2, #0]
	    }
	}


	if(USART_SR & USART_SR_TC)
 80036ca:	4b32      	ldr	r3, [pc, #200]	@ (8003794 <UART4_IRQHandler+0x168>)
 80036cc:	881b      	ldrh	r3, [r3, #0]
 80036ce:	b29b      	uxth	r3, r3
 80036d0:	f003 0340 	and.w	r3, r3, #64	@ 0x40
 80036d4:	2b00      	cmp	r3, #0
 80036d6:	d010      	beq.n	80036fa <UART4_IRQHandler+0xce>
	{
	    if (__usart_4_config__ ->ISR_Routines.Transmission_Complete_ISR) {
 80036d8:	4b2f      	ldr	r3, [pc, #188]	@ (8003798 <UART4_IRQHandler+0x16c>)
 80036da:	681b      	ldr	r3, [r3, #0]
 80036dc:	f8d3 308c 	ldr.w	r3, [r3, #140]	@ 0x8c
 80036e0:	2b00      	cmp	r3, #0
 80036e2:	d00a      	beq.n	80036fa <UART4_IRQHandler+0xce>
	    	__usart_4_config__ ->ISR_Routines.Transmission_Complete_ISR();
 80036e4:	4b2c      	ldr	r3, [pc, #176]	@ (8003798 <UART4_IRQHandler+0x16c>)
 80036e6:	681b      	ldr	r3, [r3, #0]
 80036e8:	f8d3 308c 	ldr.w	r3, [r3, #140]	@ 0x8c
 80036ec:	4798      	blx	r3
	    	UART4->SR &= ~USART_SR_TC;  // Clear the Break interrupt flag
 80036ee:	4b28      	ldr	r3, [pc, #160]	@ (8003790 <UART4_IRQHandler+0x164>)
 80036f0:	681b      	ldr	r3, [r3, #0]
 80036f2:	4a27      	ldr	r2, [pc, #156]	@ (8003790 <UART4_IRQHandler+0x164>)
 80036f4:	f023 0340 	bic.w	r3, r3, #64	@ 0x40
 80036f8:	6013      	str	r3, [r2, #0]
	    }
	}

	if(USART_SR & USART_SR_RXNE)
 80036fa:	4b26      	ldr	r3, [pc, #152]	@ (8003794 <UART4_IRQHandler+0x168>)
 80036fc:	881b      	ldrh	r3, [r3, #0]
 80036fe:	b29b      	uxth	r3, r3
 8003700:	f003 0320 	and.w	r3, r3, #32
 8003704:	2b00      	cmp	r3, #0
 8003706:	d010      	beq.n	800372a <UART4_IRQHandler+0xfe>
	{
	    if (__usart_4_config__ ->ISR_Routines.Receiver_Empty_ISR) {
 8003708:	4b23      	ldr	r3, [pc, #140]	@ (8003798 <UART4_IRQHandler+0x16c>)
 800370a:	681b      	ldr	r3, [r3, #0]
 800370c:	f8d3 3090 	ldr.w	r3, [r3, #144]	@ 0x90
 8003710:	2b00      	cmp	r3, #0
 8003712:	d00a      	beq.n	800372a <UART4_IRQHandler+0xfe>
	    	__usart_4_config__ ->ISR_Routines.Receiver_Empty_ISR();
 8003714:	4b20      	ldr	r3, [pc, #128]	@ (8003798 <UART4_IRQHandler+0x16c>)
 8003716:	681b      	ldr	r3, [r3, #0]
 8003718:	f8d3 3090 	ldr.w	r3, [r3, #144]	@ 0x90
 800371c:	4798      	blx	r3
	    	UART4->SR &= ~USART_SR_RXNE;  // Clear the Break interrupt flag
 800371e:	4b1c      	ldr	r3, [pc, #112]	@ (8003790 <UART4_IRQHandler+0x164>)
 8003720:	681b      	ldr	r3, [r3, #0]
 8003722:	4a1b      	ldr	r2, [pc, #108]	@ (8003790 <UART4_IRQHandler+0x164>)
 8003724:	f023 0320 	bic.w	r3, r3, #32
 8003728:	6013      	str	r3, [r2, #0]
	    }
	}


	if(USART_SR & USART_SR_IDLE)
 800372a:	4b1a      	ldr	r3, [pc, #104]	@ (8003794 <UART4_IRQHandler+0x168>)
 800372c:	881b      	ldrh	r3, [r3, #0]
 800372e:	b29b      	uxth	r3, r3
 8003730:	f003 0310 	and.w	r3, r3, #16
 8003734:	2b00      	cmp	r3, #0
 8003736:	d010      	beq.n	800375a <UART4_IRQHandler+0x12e>
	{
	    if (__usart_4_config__ ->ISR_Routines.Idle_Line_ISR) {
 8003738:	4b17      	ldr	r3, [pc, #92]	@ (8003798 <UART4_IRQHandler+0x16c>)
 800373a:	681b      	ldr	r3, [r3, #0]
 800373c:	f8d3 3094 	ldr.w	r3, [r3, #148]	@ 0x94
 8003740:	2b00      	cmp	r3, #0
 8003742:	d00a      	beq.n	800375a <UART4_IRQHandler+0x12e>
	    	__usart_4_config__ ->ISR_Routines.Idle_Line_ISR();
 8003744:	4b14      	ldr	r3, [pc, #80]	@ (8003798 <UART4_IRQHandler+0x16c>)
 8003746:	681b      	ldr	r3, [r3, #0]
 8003748:	f8d3 3094 	ldr.w	r3, [r3, #148]	@ 0x94
 800374c:	4798      	blx	r3
	    	UART4->SR &= ~USART_SR_IDLE;  // Clear the Break interrupt flag
 800374e:	4b10      	ldr	r3, [pc, #64]	@ (8003790 <UART4_IRQHandler+0x164>)
 8003750:	681b      	ldr	r3, [r3, #0]
 8003752:	4a0f      	ldr	r2, [pc, #60]	@ (8003790 <UART4_IRQHandler+0x164>)
 8003754:	f023 0310 	bic.w	r3, r3, #16
 8003758:	6013      	str	r3, [r2, #0]
	    }
	}

	if(USART_SR & USART_SR_PE)
 800375a:	4b0e      	ldr	r3, [pc, #56]	@ (8003794 <UART4_IRQHandler+0x168>)
 800375c:	881b      	ldrh	r3, [r3, #0]
 800375e:	b29b      	uxth	r3, r3
 8003760:	f003 0301 	and.w	r3, r3, #1
 8003764:	2b00      	cmp	r3, #0
 8003766:	d010      	beq.n	800378a <UART4_IRQHandler+0x15e>
	{
	    if (__usart_4_config__ ->ISR_Routines.Parity_ISR) {
 8003768:	4b0b      	ldr	r3, [pc, #44]	@ (8003798 <UART4_IRQHandler+0x16c>)
 800376a:	681b      	ldr	r3, [r3, #0]
 800376c:	f8d3 3084 	ldr.w	r3, [r3, #132]	@ 0x84
 8003770:	2b00      	cmp	r3, #0
 8003772:	d00a      	beq.n	800378a <UART4_IRQHandler+0x15e>
	    	__usart_4_config__ ->ISR_Routines.Parity_ISR();
 8003774:	4b08      	ldr	r3, [pc, #32]	@ (8003798 <UART4_IRQHandler+0x16c>)
 8003776:	681b      	ldr	r3, [r3, #0]
 8003778:	f8d3 3084 	ldr.w	r3, [r3, #132]	@ 0x84
 800377c:	4798      	blx	r3
	    	UART4->SR &= ~USART_SR_PE;  // Clear the Break interrupt flag
 800377e:	4b04      	ldr	r3, [pc, #16]	@ (8003790 <UART4_IRQHandler+0x164>)
 8003780:	681b      	ldr	r3, [r3, #0]
 8003782:	4a03      	ldr	r2, [pc, #12]	@ (8003790 <UART4_IRQHandler+0x164>)
 8003784:	f023 0301 	bic.w	r3, r3, #1
 8003788:	6013      	str	r3, [r2, #0]
	    }
	}

}
 800378a:	bf00      	nop
 800378c:	bd80      	pop	{r7, pc}
 800378e:	bf00      	nop
 8003790:	40004c00 	.word	0x40004c00
 8003794:	200003b8 	.word	0x200003b8
 8003798:	200003b4 	.word	0x200003b4

0800379c <USART1_IRQHandler>:


void USART1_IRQHandler(void)
{
 800379c:	b580      	push	{r7, lr}
 800379e:	af00      	add	r7, sp, #0
	USART_SR = USART1 -> SR;
 80037a0:	4b57      	ldr	r3, [pc, #348]	@ (8003900 <USART1_IRQHandler+0x164>)
 80037a2:	681b      	ldr	r3, [r3, #0]
 80037a4:	b29a      	uxth	r2, r3
 80037a6:	4b57      	ldr	r3, [pc, #348]	@ (8003904 <USART1_IRQHandler+0x168>)
 80037a8:	801a      	strh	r2, [r3, #0]
	if(USART_SR & USART_SR_CTS)
 80037aa:	4b56      	ldr	r3, [pc, #344]	@ (8003904 <USART1_IRQHandler+0x168>)
 80037ac:	881b      	ldrh	r3, [r3, #0]
 80037ae:	b29b      	uxth	r3, r3
 80037b0:	f403 7300 	and.w	r3, r3, #512	@ 0x200
 80037b4:	2b00      	cmp	r3, #0
 80037b6:	d010      	beq.n	80037da <USART1_IRQHandler+0x3e>
	{
	    if (__usart_1_config__ ->ISR_Routines.CTS_ISR) {
 80037b8:	4b53      	ldr	r3, [pc, #332]	@ (8003908 <USART1_IRQHandler+0x16c>)
 80037ba:	681b      	ldr	r3, [r3, #0]
 80037bc:	f8d3 3098 	ldr.w	r3, [r3, #152]	@ 0x98
 80037c0:	2b00      	cmp	r3, #0
 80037c2:	d00a      	beq.n	80037da <USART1_IRQHandler+0x3e>
	    	__usart_1_config__ ->ISR_Routines.CTS_ISR();
 80037c4:	4b50      	ldr	r3, [pc, #320]	@ (8003908 <USART1_IRQHandler+0x16c>)
 80037c6:	681b      	ldr	r3, [r3, #0]
 80037c8:	f8d3 3098 	ldr.w	r3, [r3, #152]	@ 0x98
 80037cc:	4798      	blx	r3
	    	USART1->SR &= ~USART_SR_CTS;  // Clear the Break interrupt flag
 80037ce:	4b4c      	ldr	r3, [pc, #304]	@ (8003900 <USART1_IRQHandler+0x164>)
 80037d0:	681b      	ldr	r3, [r3, #0]
 80037d2:	4a4b      	ldr	r2, [pc, #300]	@ (8003900 <USART1_IRQHandler+0x164>)
 80037d4:	f423 7300 	bic.w	r3, r3, #512	@ 0x200
 80037d8:	6013      	str	r3, [r2, #0]
	    }
	}

	if(USART_SR & USART_SR_LBD)
 80037da:	4b4a      	ldr	r3, [pc, #296]	@ (8003904 <USART1_IRQHandler+0x168>)
 80037dc:	881b      	ldrh	r3, [r3, #0]
 80037de:	b29b      	uxth	r3, r3
 80037e0:	f403 7380 	and.w	r3, r3, #256	@ 0x100
 80037e4:	2b00      	cmp	r3, #0
 80037e6:	d010      	beq.n	800380a <USART1_IRQHandler+0x6e>
	{
	    if (__usart_1_config__ ->ISR_Routines.LIN_Break_Detection_ISR) {
 80037e8:	4b47      	ldr	r3, [pc, #284]	@ (8003908 <USART1_IRQHandler+0x16c>)
 80037ea:	681b      	ldr	r3, [r3, #0]
 80037ec:	f8d3 30a0 	ldr.w	r3, [r3, #160]	@ 0xa0
 80037f0:	2b00      	cmp	r3, #0
 80037f2:	d00a      	beq.n	800380a <USART1_IRQHandler+0x6e>
	    	__usart_1_config__ ->ISR_Routines.LIN_Break_Detection_ISR();
 80037f4:	4b44      	ldr	r3, [pc, #272]	@ (8003908 <USART1_IRQHandler+0x16c>)
 80037f6:	681b      	ldr	r3, [r3, #0]
 80037f8:	f8d3 30a0 	ldr.w	r3, [r3, #160]	@ 0xa0
 80037fc:	4798      	blx	r3
	    	USART1->SR &= ~USART_SR_LBD;  // Clear the Break interrupt flag
 80037fe:	4b40      	ldr	r3, [pc, #256]	@ (8003900 <USART1_IRQHandler+0x164>)
 8003800:	681b      	ldr	r3, [r3, #0]
 8003802:	4a3f      	ldr	r2, [pc, #252]	@ (8003900 <USART1_IRQHandler+0x164>)
 8003804:	f423 7380 	bic.w	r3, r3, #256	@ 0x100
 8003808:	6013      	str	r3, [r2, #0]
	    }
	}

	if(USART_SR & USART_SR_TXE)
 800380a:	4b3e      	ldr	r3, [pc, #248]	@ (8003904 <USART1_IRQHandler+0x168>)
 800380c:	881b      	ldrh	r3, [r3, #0]
 800380e:	b29b      	uxth	r3, r3
 8003810:	f003 0380 	and.w	r3, r3, #128	@ 0x80
 8003814:	2b00      	cmp	r3, #0
 8003816:	d010      	beq.n	800383a <USART1_IRQHandler+0x9e>
	{
	    if (__usart_1_config__ ->ISR_Routines.Transmit_Empty_ISR) {
 8003818:	4b3b      	ldr	r3, [pc, #236]	@ (8003908 <USART1_IRQHandler+0x16c>)
 800381a:	681b      	ldr	r3, [r3, #0]
 800381c:	f8d3 3088 	ldr.w	r3, [r3, #136]	@ 0x88
 8003820:	2b00      	cmp	r3, #0
 8003822:	d00a      	beq.n	800383a <USART1_IRQHandler+0x9e>
	    	__usart_1_config__ ->ISR_Routines.Transmit_Empty_ISR();
 8003824:	4b38      	ldr	r3, [pc, #224]	@ (8003908 <USART1_IRQHandler+0x16c>)
 8003826:	681b      	ldr	r3, [r3, #0]
 8003828:	f8d3 3088 	ldr.w	r3, [r3, #136]	@ 0x88
 800382c:	4798      	blx	r3
	    	USART1->SR &= ~USART_SR_TXE;  // Clear the Break interrupt flag
 800382e:	4b34      	ldr	r3, [pc, #208]	@ (8003900 <USART1_IRQHandler+0x164>)
 8003830:	681b      	ldr	r3, [r3, #0]
 8003832:	4a33      	ldr	r2, [pc, #204]	@ (8003900 <USART1_IRQHandler+0x164>)
 8003834:	f023 0380 	bic.w	r3, r3, #128	@ 0x80
 8003838:	6013      	str	r3, [r2, #0]
	    }
	}


	if(USART_SR & USART_SR_TC)
 800383a:	4b32      	ldr	r3, [pc, #200]	@ (8003904 <USART1_IRQHandler+0x168>)
 800383c:	881b      	ldrh	r3, [r3, #0]
 800383e:	b29b      	uxth	r3, r3
 8003840:	f003 0340 	and.w	r3, r3, #64	@ 0x40
 8003844:	2b00      	cmp	r3, #0
 8003846:	d010      	beq.n	800386a <USART1_IRQHandler+0xce>
	{
	    if (__usart_1_config__ ->ISR_Routines.Transmission_Complete_ISR) {
 8003848:	4b2f      	ldr	r3, [pc, #188]	@ (8003908 <USART1_IRQHandler+0x16c>)
 800384a:	681b      	ldr	r3, [r3, #0]
 800384c:	f8d3 308c 	ldr.w	r3, [r3, #140]	@ 0x8c
 8003850:	2b00      	cmp	r3, #0
 8003852:	d00a      	beq.n	800386a <USART1_IRQHandler+0xce>
	    	__usart_1_config__ ->ISR_Routines.Transmission_Complete_ISR();
 8003854:	4b2c      	ldr	r3, [pc, #176]	@ (8003908 <USART1_IRQHandler+0x16c>)
 8003856:	681b      	ldr	r3, [r3, #0]
 8003858:	f8d3 308c 	ldr.w	r3, [r3, #140]	@ 0x8c
 800385c:	4798      	blx	r3
	    	USART1->SR &= ~USART_SR_TC;  // Clear the Break interrupt flag
 800385e:	4b28      	ldr	r3, [pc, #160]	@ (8003900 <USART1_IRQHandler+0x164>)
 8003860:	681b      	ldr	r3, [r3, #0]
 8003862:	4a27      	ldr	r2, [pc, #156]	@ (8003900 <USART1_IRQHandler+0x164>)
 8003864:	f023 0340 	bic.w	r3, r3, #64	@ 0x40
 8003868:	6013      	str	r3, [r2, #0]
	    }
	}

	if(USART_SR & USART_SR_RXNE)
 800386a:	4b26      	ldr	r3, [pc, #152]	@ (8003904 <USART1_IRQHandler+0x168>)
 800386c:	881b      	ldrh	r3, [r3, #0]
 800386e:	b29b      	uxth	r3, r3
 8003870:	f003 0320 	and.w	r3, r3, #32
 8003874:	2b00      	cmp	r3, #0
 8003876:	d010      	beq.n	800389a <USART1_IRQHandler+0xfe>
	{
	    if (__usart_1_config__ ->ISR_Routines.Receiver_Empty_ISR) {
 8003878:	4b23      	ldr	r3, [pc, #140]	@ (8003908 <USART1_IRQHandler+0x16c>)
 800387a:	681b      	ldr	r3, [r3, #0]
 800387c:	f8d3 3090 	ldr.w	r3, [r3, #144]	@ 0x90
 8003880:	2b00      	cmp	r3, #0
 8003882:	d00a      	beq.n	800389a <USART1_IRQHandler+0xfe>
	    	__usart_1_config__ ->ISR_Routines.Receiver_Empty_ISR();
 8003884:	4b20      	ldr	r3, [pc, #128]	@ (8003908 <USART1_IRQHandler+0x16c>)
 8003886:	681b      	ldr	r3, [r3, #0]
 8003888:	f8d3 3090 	ldr.w	r3, [r3, #144]	@ 0x90
 800388c:	4798      	blx	r3
	    	USART1->SR &= ~USART_SR_RXNE;  // Clear the Break interrupt flag
 800388e:	4b1c      	ldr	r3, [pc, #112]	@ (8003900 <USART1_IRQHandler+0x164>)
 8003890:	681b      	ldr	r3, [r3, #0]
 8003892:	4a1b      	ldr	r2, [pc, #108]	@ (8003900 <USART1_IRQHandler+0x164>)
 8003894:	f023 0320 	bic.w	r3, r3, #32
 8003898:	6013      	str	r3, [r2, #0]
	    }
	}


	if(USART_SR & USART_SR_IDLE)
 800389a:	4b1a      	ldr	r3, [pc, #104]	@ (8003904 <USART1_IRQHandler+0x168>)
 800389c:	881b      	ldrh	r3, [r3, #0]
 800389e:	b29b      	uxth	r3, r3
 80038a0:	f003 0310 	and.w	r3, r3, #16
 80038a4:	2b00      	cmp	r3, #0
 80038a6:	d010      	beq.n	80038ca <USART1_IRQHandler+0x12e>
	{
	    if (__usart_1_config__ ->ISR_Routines.Idle_Line_ISR) {
 80038a8:	4b17      	ldr	r3, [pc, #92]	@ (8003908 <USART1_IRQHandler+0x16c>)
 80038aa:	681b      	ldr	r3, [r3, #0]
 80038ac:	f8d3 3094 	ldr.w	r3, [r3, #148]	@ 0x94
 80038b0:	2b00      	cmp	r3, #0
 80038b2:	d00a      	beq.n	80038ca <USART1_IRQHandler+0x12e>
	    	__usart_1_config__ ->ISR_Routines.Idle_Line_ISR();
 80038b4:	4b14      	ldr	r3, [pc, #80]	@ (8003908 <USART1_IRQHandler+0x16c>)
 80038b6:	681b      	ldr	r3, [r3, #0]
 80038b8:	f8d3 3094 	ldr.w	r3, [r3, #148]	@ 0x94
 80038bc:	4798      	blx	r3
	    	USART1->SR &= ~USART_SR_IDLE;  // Clear the Break interrupt flag
 80038be:	4b10      	ldr	r3, [pc, #64]	@ (8003900 <USART1_IRQHandler+0x164>)
 80038c0:	681b      	ldr	r3, [r3, #0]
 80038c2:	4a0f      	ldr	r2, [pc, #60]	@ (8003900 <USART1_IRQHandler+0x164>)
 80038c4:	f023 0310 	bic.w	r3, r3, #16
 80038c8:	6013      	str	r3, [r2, #0]
	    }
	}

	if(USART_SR & USART_SR_PE)
 80038ca:	4b0e      	ldr	r3, [pc, #56]	@ (8003904 <USART1_IRQHandler+0x168>)
 80038cc:	881b      	ldrh	r3, [r3, #0]
 80038ce:	b29b      	uxth	r3, r3
 80038d0:	f003 0301 	and.w	r3, r3, #1
 80038d4:	2b00      	cmp	r3, #0
 80038d6:	d010      	beq.n	80038fa <USART1_IRQHandler+0x15e>
	{
	    if (__usart_1_config__ ->ISR_Routines.Parity_ISR) {
 80038d8:	4b0b      	ldr	r3, [pc, #44]	@ (8003908 <USART1_IRQHandler+0x16c>)
 80038da:	681b      	ldr	r3, [r3, #0]
 80038dc:	f8d3 3084 	ldr.w	r3, [r3, #132]	@ 0x84
 80038e0:	2b00      	cmp	r3, #0
 80038e2:	d00a      	beq.n	80038fa <USART1_IRQHandler+0x15e>
	    	__usart_1_config__ ->ISR_Routines.Parity_ISR();
 80038e4:	4b08      	ldr	r3, [pc, #32]	@ (8003908 <USART1_IRQHandler+0x16c>)
 80038e6:	681b      	ldr	r3, [r3, #0]
 80038e8:	f8d3 3084 	ldr.w	r3, [r3, #132]	@ 0x84
 80038ec:	4798      	blx	r3
	    	USART1->SR &= ~USART_SR_PE;  // Clear the Break interrupt flag
 80038ee:	4b04      	ldr	r3, [pc, #16]	@ (8003900 <USART1_IRQHandler+0x164>)
 80038f0:	681b      	ldr	r3, [r3, #0]
 80038f2:	4a03      	ldr	r2, [pc, #12]	@ (8003900 <USART1_IRQHandler+0x164>)
 80038f4:	f023 0301 	bic.w	r3, r3, #1
 80038f8:	6013      	str	r3, [r2, #0]
	    }
	}

}
 80038fa:	bf00      	nop
 80038fc:	bd80      	pop	{r7, pc}
 80038fe:	bf00      	nop
 8003900:	40011000 	.word	0x40011000
 8003904:	200003b8 	.word	0x200003b8
 8003908:	200003b0 	.word	0x200003b0

0800390c <__NVIC_SetPriority>:
  \param [in]      IRQn  Interrupt number.
  \param [in]  priority  Priority to set.
  \note    The priority cannot be set for every processor exception.
 */
__STATIC_INLINE void __NVIC_SetPriority(IRQn_Type IRQn, uint32_t priority)
{
 800390c:	b480      	push	{r7}
 800390e:	b083      	sub	sp, #12
 8003910:	af00      	add	r7, sp, #0
 8003912:	4603      	mov	r3, r0
 8003914:	6039      	str	r1, [r7, #0]
 8003916:	71fb      	strb	r3, [r7, #7]
  if ((int32_t)(IRQn) >= 0)
 8003918:	f997 3007 	ldrsb.w	r3, [r7, #7]
 800391c:	2b00      	cmp	r3, #0
 800391e:	db0a      	blt.n	8003936 <__NVIC_SetPriority+0x2a>
  {
    NVIC->IP[((uint32_t)IRQn)]               = (uint8_t)((priority << (8U - __NVIC_PRIO_BITS)) & (uint32_t)0xFFUL);
 8003920:	683b      	ldr	r3, [r7, #0]
 8003922:	b2da      	uxtb	r2, r3
 8003924:	490c      	ldr	r1, [pc, #48]	@ (8003958 <__NVIC_SetPriority+0x4c>)
 8003926:	f997 3007 	ldrsb.w	r3, [r7, #7]
 800392a:	0112      	lsls	r2, r2, #4
 800392c:	b2d2      	uxtb	r2, r2
 800392e:	440b      	add	r3, r1
 8003930:	f883 2300 	strb.w	r2, [r3, #768]	@ 0x300
  }
  else
  {
    SCB->SHP[(((uint32_t)IRQn) & 0xFUL)-4UL] = (uint8_t)((priority << (8U - __NVIC_PRIO_BITS)) & (uint32_t)0xFFUL);
  }
}
 8003934:	e00a      	b.n	800394c <__NVIC_SetPriority+0x40>
    SCB->SHP[(((uint32_t)IRQn) & 0xFUL)-4UL] = (uint8_t)((priority << (8U - __NVIC_PRIO_BITS)) & (uint32_t)0xFFUL);
 8003936:	683b      	ldr	r3, [r7, #0]
 8003938:	b2da      	uxtb	r2, r3
 800393a:	4908      	ldr	r1, [pc, #32]	@ (800395c <__NVIC_SetPriority+0x50>)
 800393c:	79fb      	ldrb	r3, [r7, #7]
 800393e:	f003 030f 	and.w	r3, r3, #15
 8003942:	3b04      	subs	r3, #4
 8003944:	0112      	lsls	r2, r2, #4
 8003946:	b2d2      	uxtb	r2, r2
 8003948:	440b      	add	r3, r1
 800394a:	761a      	strb	r2, [r3, #24]
}
 800394c:	bf00      	nop
 800394e:	370c      	adds	r7, #12
 8003950:	46bd      	mov	sp, r7
 8003952:	f85d 7b04 	ldr.w	r7, [sp], #4
 8003956:	4770      	bx	lr
 8003958:	e000e100 	.word	0xe000e100
 800395c:	e000ed00 	.word	0xe000ed00

08003960 <SysTick_Config>:
  \note    When the variable <b>__Vendor_SysTickConfig</b> is set to 1, then the
           function <b>SysTick_Config</b> is not included. In this case, the file <b><i>device</i>.h</b>
           must contain a vendor-specific implementation of this function.
 */
__STATIC_INLINE uint32_t SysTick_Config(uint32_t ticks)
{
 8003960:	b580      	push	{r7, lr}
 8003962:	b082      	sub	sp, #8
 8003964:	af00      	add	r7, sp, #0
 8003966:	6078      	str	r0, [r7, #4]
  if ((ticks - 1UL) > SysTick_LOAD_RELOAD_Msk)
 8003968:	687b      	ldr	r3, [r7, #4]
 800396a:	3b01      	subs	r3, #1
 800396c:	f1b3 7f80 	cmp.w	r3, #16777216	@ 0x1000000
 8003970:	d301      	bcc.n	8003976 <SysTick_Config+0x16>
  {
    return (1UL);                                                   /* Reload value impossible */
 8003972:	2301      	movs	r3, #1
 8003974:	e00f      	b.n	8003996 <SysTick_Config+0x36>
  }

  SysTick->LOAD  = (uint32_t)(ticks - 1UL);                         /* set reload register */
 8003976:	4a0a      	ldr	r2, [pc, #40]	@ (80039a0 <SysTick_Config+0x40>)
 8003978:	687b      	ldr	r3, [r7, #4]
 800397a:	3b01      	subs	r3, #1
 800397c:	6053      	str	r3, [r2, #4]
  NVIC_SetPriority (SysTick_IRQn, (1UL << __NVIC_PRIO_BITS) - 1UL); /* set Priority for Systick Interrupt */
 800397e:	210f      	movs	r1, #15
 8003980:	f04f 30ff 	mov.w	r0, #4294967295
 8003984:	f7ff ffc2 	bl	800390c <__NVIC_SetPriority>
  SysTick->VAL   = 0UL;                                             /* Load the SysTick Counter Value */
 8003988:	4b05      	ldr	r3, [pc, #20]	@ (80039a0 <SysTick_Config+0x40>)
 800398a:	2200      	movs	r2, #0
 800398c:	609a      	str	r2, [r3, #8]
  SysTick->CTRL  = SysTick_CTRL_CLKSOURCE_Msk |
 800398e:	4b04      	ldr	r3, [pc, #16]	@ (80039a0 <SysTick_Config+0x40>)
 8003990:	2207      	movs	r2, #7
 8003992:	601a      	str	r2, [r3, #0]
                   SysTick_CTRL_TICKINT_Msk   |
                   SysTick_CTRL_ENABLE_Msk;                         /* Enable SysTick IRQ and SysTick Timer */
  return (0UL);                                                     /* Function successful */
 8003994:	2300      	movs	r3, #0
}
 8003996:	4618      	mov	r0, r3
 8003998:	3708      	adds	r7, #8
 800399a:	46bd      	mov	sp, r7
 800399c:	bd80      	pop	{r7, pc}
 800399e:	bf00      	nop
 80039a0:	e000e010 	.word	0xe000e010

080039a4 <MCU_Clock_Setup>:
{
	return (SystemCoreClock >> APBPrescTable[(RCC->CFGR & RCC_CFGR_PPRE2)>> RCC_CFGR_PPRE2_Pos]);
}

__STATIC_INLINE void MCU_Clock_Setup(void)
{
 80039a4:	b580      	push	{r7, lr}
 80039a6:	b082      	sub	sp, #8
 80039a8:	af00      	add	r7, sp, #0
//	uint8_t pll_m = 4;
//	uint8_t pll_n = 168; //192
//	uint8_t pll_p = 0;
//	uint8_t pll_q = 7;

	SystemInit();
 80039aa:	f000 f9af 	bl	8003d0c <SystemInit>

	uint8_t pll_m = 8;
 80039ae:	2308      	movs	r3, #8
 80039b0:	71fb      	strb	r3, [r7, #7]
	uint16_t pll_n = 336; //192
 80039b2:	f44f 73a8 	mov.w	r3, #336	@ 0x150
 80039b6:	80bb      	strh	r3, [r7, #4]
	uint8_t pll_p = 0;
 80039b8:	2300      	movs	r3, #0
 80039ba:	70fb      	strb	r3, [r7, #3]
	uint8_t pll_q = 7;
 80039bc:	2307      	movs	r3, #7
 80039be:	70bb      	strb	r3, [r7, #2]

	RCC->PLLCFGR = 0x00000000;
 80039c0:	4b3c      	ldr	r3, [pc, #240]	@ (8003ab4 <MCU_Clock_Setup+0x110>)
 80039c2:	2200      	movs	r2, #0
 80039c4:	605a      	str	r2, [r3, #4]
	RCC -> CR |= RCC_CR_HSEON;
 80039c6:	4b3b      	ldr	r3, [pc, #236]	@ (8003ab4 <MCU_Clock_Setup+0x110>)
 80039c8:	681b      	ldr	r3, [r3, #0]
 80039ca:	4a3a      	ldr	r2, [pc, #232]	@ (8003ab4 <MCU_Clock_Setup+0x110>)
 80039cc:	f443 3380 	orr.w	r3, r3, #65536	@ 0x10000
 80039d0:	6013      	str	r3, [r2, #0]
	while(!(RCC -> CR & RCC_CR_HSERDY)){}
 80039d2:	bf00      	nop
 80039d4:	4b37      	ldr	r3, [pc, #220]	@ (8003ab4 <MCU_Clock_Setup+0x110>)
 80039d6:	681b      	ldr	r3, [r3, #0]
 80039d8:	f403 3300 	and.w	r3, r3, #131072	@ 0x20000
 80039dc:	2b00      	cmp	r3, #0
 80039de:	d0f9      	beq.n	80039d4 <MCU_Clock_Setup+0x30>
	RCC -> APB1ENR |= RCC_APB1ENR_PWREN;
 80039e0:	4b34      	ldr	r3, [pc, #208]	@ (8003ab4 <MCU_Clock_Setup+0x110>)
 80039e2:	6c1b      	ldr	r3, [r3, #64]	@ 0x40
 80039e4:	4a33      	ldr	r2, [pc, #204]	@ (8003ab4 <MCU_Clock_Setup+0x110>)
 80039e6:	f043 5380 	orr.w	r3, r3, #268435456	@ 0x10000000
 80039ea:	6413      	str	r3, [r2, #64]	@ 0x40
	PWR ->CR |= PWR_CR_VOS;
 80039ec:	4b32      	ldr	r3, [pc, #200]	@ (8003ab8 <MCU_Clock_Setup+0x114>)
 80039ee:	681b      	ldr	r3, [r3, #0]
 80039f0:	4a31      	ldr	r2, [pc, #196]	@ (8003ab8 <MCU_Clock_Setup+0x114>)
 80039f2:	f443 4380 	orr.w	r3, r3, #16384	@ 0x4000
 80039f6:	6013      	str	r3, [r2, #0]
	FLASH -> ACR |= FLASH_ACR_ICEN | FLASH_ACR_PRFTEN | FLASH_ACR_DCEN | FLASH_ACR_LATENCY_5WS;
 80039f8:	4b30      	ldr	r3, [pc, #192]	@ (8003abc <MCU_Clock_Setup+0x118>)
 80039fa:	681b      	ldr	r3, [r3, #0]
 80039fc:	4a2f      	ldr	r2, [pc, #188]	@ (8003abc <MCU_Clock_Setup+0x118>)
 80039fe:	f443 63e0 	orr.w	r3, r3, #1792	@ 0x700
 8003a02:	f043 0305 	orr.w	r3, r3, #5
 8003a06:	6013      	str	r3, [r2, #0]
	RCC->PLLCFGR |= (pll_q << 24) | (pll_p << 16) | (pll_n << 6) | (pll_m << 0);
 8003a08:	4b2a      	ldr	r3, [pc, #168]	@ (8003ab4 <MCU_Clock_Setup+0x110>)
 8003a0a:	685b      	ldr	r3, [r3, #4]
 8003a0c:	78ba      	ldrb	r2, [r7, #2]
 8003a0e:	0611      	lsls	r1, r2, #24
 8003a10:	78fa      	ldrb	r2, [r7, #3]
 8003a12:	0412      	lsls	r2, r2, #16
 8003a14:	4311      	orrs	r1, r2
 8003a16:	88ba      	ldrh	r2, [r7, #4]
 8003a18:	0192      	lsls	r2, r2, #6
 8003a1a:	4311      	orrs	r1, r2
 8003a1c:	79fa      	ldrb	r2, [r7, #7]
 8003a1e:	430a      	orrs	r2, r1
 8003a20:	4611      	mov	r1, r2
 8003a22:	4a24      	ldr	r2, [pc, #144]	@ (8003ab4 <MCU_Clock_Setup+0x110>)
 8003a24:	430b      	orrs	r3, r1
 8003a26:	6053      	str	r3, [r2, #4]
	RCC ->PLLCFGR |= 1 << 22;
 8003a28:	4b22      	ldr	r3, [pc, #136]	@ (8003ab4 <MCU_Clock_Setup+0x110>)
 8003a2a:	685b      	ldr	r3, [r3, #4]
 8003a2c:	4a21      	ldr	r2, [pc, #132]	@ (8003ab4 <MCU_Clock_Setup+0x110>)
 8003a2e:	f443 0380 	orr.w	r3, r3, #4194304	@ 0x400000
 8003a32:	6053      	str	r3, [r2, #4]
	RCC -> CFGR |= RCC_CFGR_HPRE_DIV1;
 8003a34:	4b1f      	ldr	r3, [pc, #124]	@ (8003ab4 <MCU_Clock_Setup+0x110>)
 8003a36:	4a1f      	ldr	r2, [pc, #124]	@ (8003ab4 <MCU_Clock_Setup+0x110>)
 8003a38:	689b      	ldr	r3, [r3, #8]
 8003a3a:	6093      	str	r3, [r2, #8]
	RCC -> CFGR |= RCC_CFGR_PPRE1_DIV4;
 8003a3c:	4b1d      	ldr	r3, [pc, #116]	@ (8003ab4 <MCU_Clock_Setup+0x110>)
 8003a3e:	689b      	ldr	r3, [r3, #8]
 8003a40:	4a1c      	ldr	r2, [pc, #112]	@ (8003ab4 <MCU_Clock_Setup+0x110>)
 8003a42:	f443 53a0 	orr.w	r3, r3, #5120	@ 0x1400
 8003a46:	6093      	str	r3, [r2, #8]
	RCC -> CFGR |= RCC_CFGR_PPRE2_DIV2;
 8003a48:	4b1a      	ldr	r3, [pc, #104]	@ (8003ab4 <MCU_Clock_Setup+0x110>)
 8003a4a:	689b      	ldr	r3, [r3, #8]
 8003a4c:	4a19      	ldr	r2, [pc, #100]	@ (8003ab4 <MCU_Clock_Setup+0x110>)
 8003a4e:	f443 4300 	orr.w	r3, r3, #32768	@ 0x8000
 8003a52:	6093      	str	r3, [r2, #8]




	RCC -> CR |= RCC_CR_PLLON;
 8003a54:	4b17      	ldr	r3, [pc, #92]	@ (8003ab4 <MCU_Clock_Setup+0x110>)
 8003a56:	681b      	ldr	r3, [r3, #0]
 8003a58:	4a16      	ldr	r2, [pc, #88]	@ (8003ab4 <MCU_Clock_Setup+0x110>)
 8003a5a:	f043 7380 	orr.w	r3, r3, #16777216	@ 0x1000000
 8003a5e:	6013      	str	r3, [r2, #0]



	while(!(RCC->CR & RCC_CR_PLLRDY)){}
 8003a60:	bf00      	nop
 8003a62:	4b14      	ldr	r3, [pc, #80]	@ (8003ab4 <MCU_Clock_Setup+0x110>)
 8003a64:	681b      	ldr	r3, [r3, #0]
 8003a66:	f003 7300 	and.w	r3, r3, #33554432	@ 0x2000000
 8003a6a:	2b00      	cmp	r3, #0
 8003a6c:	d0f9      	beq.n	8003a62 <MCU_Clock_Setup+0xbe>
	RCC -> CFGR |= RCC_CFGR_SW_PLL;
 8003a6e:	4b11      	ldr	r3, [pc, #68]	@ (8003ab4 <MCU_Clock_Setup+0x110>)
 8003a70:	689b      	ldr	r3, [r3, #8]
 8003a72:	4a10      	ldr	r2, [pc, #64]	@ (8003ab4 <MCU_Clock_Setup+0x110>)
 8003a74:	f043 0302 	orr.w	r3, r3, #2
 8003a78:	6093      	str	r3, [r2, #8]
	while((RCC -> CFGR & RCC_CFGR_SWS_PLL) != RCC_CFGR_SWS_PLL);
 8003a7a:	bf00      	nop
 8003a7c:	4b0d      	ldr	r3, [pc, #52]	@ (8003ab4 <MCU_Clock_Setup+0x110>)
 8003a7e:	689b      	ldr	r3, [r3, #8]
 8003a80:	f003 0308 	and.w	r3, r3, #8
 8003a84:	2b08      	cmp	r3, #8
 8003a86:	d1f9      	bne.n	8003a7c <MCU_Clock_Setup+0xd8>
	SystemCoreClockUpdate();
 8003a88:	f000 f952 	bl	8003d30 <SystemCoreClockUpdate>
	SysTick_Config(SystemCoreClock/168);
 8003a8c:	4b0c      	ldr	r3, [pc, #48]	@ (8003ac0 <MCU_Clock_Setup+0x11c>)
 8003a8e:	681b      	ldr	r3, [r3, #0]
 8003a90:	08db      	lsrs	r3, r3, #3
 8003a92:	4a0c      	ldr	r2, [pc, #48]	@ (8003ac4 <MCU_Clock_Setup+0x120>)
 8003a94:	fba2 2303 	umull	r2, r3, r2, r3
 8003a98:	085b      	lsrs	r3, r3, #1
 8003a9a:	4618      	mov	r0, r3
 8003a9c:	f7ff ff60 	bl	8003960 <SysTick_Config>
	RCC -> APB2ENR |= RCC_APB2ENR_SYSCFGEN;
 8003aa0:	4b04      	ldr	r3, [pc, #16]	@ (8003ab4 <MCU_Clock_Setup+0x110>)
 8003aa2:	6c5b      	ldr	r3, [r3, #68]	@ 0x44
 8003aa4:	4a03      	ldr	r2, [pc, #12]	@ (8003ab4 <MCU_Clock_Setup+0x110>)
 8003aa6:	f443 4380 	orr.w	r3, r3, #16384	@ 0x4000
 8003aaa:	6453      	str	r3, [r2, #68]	@ 0x44
}
 8003aac:	bf00      	nop
 8003aae:	3708      	adds	r7, #8
 8003ab0:	46bd      	mov	sp, r7
 8003ab2:	bd80      	pop	{r7, pc}
 8003ab4:	40023800 	.word	0x40023800
 8003ab8:	40007000 	.word	0x40007000
 8003abc:	40023c00 	.word	0x40023c00
 8003ac0:	20000000 	.word	0x20000000
 8003ac4:	18618619 	.word	0x18618619

08003ac8 <Delay_Config>:
}



__STATIC_INLINE uint32_t Delay_Config(void)
{
 8003ac8:	b480      	push	{r7}
 8003aca:	af00      	add	r7, sp, #0

	SysTick->CTRL = 0;
 8003acc:	4b09      	ldr	r3, [pc, #36]	@ (8003af4 <Delay_Config+0x2c>)
 8003ace:	2200      	movs	r2, #0
 8003ad0:	601a      	str	r2, [r3, #0]
	SysTick->LOAD = 0x00FFFFFF;
 8003ad2:	4b08      	ldr	r3, [pc, #32]	@ (8003af4 <Delay_Config+0x2c>)
 8003ad4:	f06f 427f 	mvn.w	r2, #4278190080	@ 0xff000000
 8003ad8:	605a      	str	r2, [r3, #4]
	SysTick->VAL = 0;
 8003ada:	4b06      	ldr	r3, [pc, #24]	@ (8003af4 <Delay_Config+0x2c>)
 8003adc:	2200      	movs	r2, #0
 8003ade:	609a      	str	r2, [r3, #8]
	SysTick->CTRL = 5;
 8003ae0:	4b04      	ldr	r3, [pc, #16]	@ (8003af4 <Delay_Config+0x2c>)
 8003ae2:	2205      	movs	r2, #5
 8003ae4:	601a      	str	r2, [r3, #0]
	return (0UL);                                                     /* Function successful */
 8003ae6:	2300      	movs	r3, #0
}
 8003ae8:	4618      	mov	r0, r3
 8003aea:	46bd      	mov	sp, r7
 8003aec:	f85d 7b04 	ldr.w	r7, [sp], #4
 8003af0:	4770      	bx	lr
 8003af2:	bf00      	nop
 8003af4:	e000e010 	.word	0xe000e010

08003af8 <main>:
//	}

}

int main(void)
{
 8003af8:	b580      	push	{r7, lr}
 8003afa:	b082      	sub	sp, #8
 8003afc:	af02      	add	r7, sp, #8
	MCU_Clock_Setup();
 8003afe:	f7ff ff51 	bl	80039a4 <MCU_Clock_Setup>
	Delay_Config();
 8003b02:	f7ff ffe1 	bl	8003ac8 <Delay_Config>
//	Console_Init(9600);


	mpu6050.Port = I2C1;
 8003b06:	4b78      	ldr	r3, [pc, #480]	@ (8003ce8 <main+0x1f0>)
 8003b08:	4a78      	ldr	r2, [pc, #480]	@ (8003cec <main+0x1f4>)
 8003b0a:	601a      	str	r2, [r3, #0]
	mpu6050.Mode = I2C_Configuration.Mode.Master;
 8003b0c:	2201      	movs	r2, #1
 8003b0e:	4b76      	ldr	r3, [pc, #472]	@ (8003ce8 <main+0x1f0>)
 8003b10:	731a      	strb	r2, [r3, #12]
	mpu6050.Interrupts = I2C_Configuration.Interrupts.Disable;
 8003b12:	2300      	movs	r3, #0
 8003b14:	b2da      	uxtb	r2, r3
 8003b16:	4b74      	ldr	r3, [pc, #464]	@ (8003ce8 <main+0x1f0>)
 8003b18:	735a      	strb	r2, [r3, #13]
	mpu6050.DMA_Control = I2C_Configuration.DMA_Control.RX_DMA_Enable;
 8003b1a:	2202      	movs	r2, #2
 8003b1c:	4b72      	ldr	r3, [pc, #456]	@ (8003ce8 <main+0x1f0>)
 8003b1e:	739a      	strb	r2, [r3, #14]
	mpu6050.SCL_Pin = I2C_Configuration.Pin.__I2C1__.SCL.PB6;
 8003b20:	23ce      	movs	r3, #206	@ 0xce
 8003b22:	b2da      	uxtb	r2, r3
 8003b24:	4b70      	ldr	r3, [pc, #448]	@ (8003ce8 <main+0x1f0>)
 8003b26:	711a      	strb	r2, [r3, #4]
	mpu6050.SDA_Pin = I2C_Configuration.Pin.__I2C1__.SDA.PB7;
 8003b28:	23cf      	movs	r3, #207	@ 0xcf
 8003b2a:	b2da      	uxtb	r2, r3
 8003b2c:	4b6e      	ldr	r3, [pc, #440]	@ (8003ce8 <main+0x1f0>)
 8003b2e:	715a      	strb	r2, [r3, #5]
	mpu6050.Speed_Mode = I2C_Configuration.Speed_Mode.FM_Mode;
 8003b30:	2301      	movs	r3, #1
 8003b32:	461a      	mov	r2, r3
 8003b34:	4b6c      	ldr	r3, [pc, #432]	@ (8003ce8 <main+0x1f0>)
 8003b36:	609a      	str	r2, [r3, #8]
	I2C_Init(&mpu6050);
 8003b38:	486b      	ldr	r0, [pc, #428]	@ (8003ce8 <main+0x1f0>)
 8003b3a:	f7fe ff0b 	bl	8002954 <I2C_Init>



//	I2C_Master_Write_Register(MPU9250, MPU9250_ADDRESS, ZA_OFFSET_L, 0x30);
//	I2C_Master_Write_Register(MPU9250, MPU9250_ADDRESS, ACCEL_CONFIG2, 0x06);
	I2C_Master_Write_Register(&mpu6050, mpu6050_address, 0x6B, 0x00);
 8003b3e:	2300      	movs	r3, #0
 8003b40:	226b      	movs	r2, #107	@ 0x6b
 8003b42:	2168      	movs	r1, #104	@ 0x68
 8003b44:	4868      	ldr	r0, [pc, #416]	@ (8003ce8 <main+0x1f0>)
 8003b46:	f7ff f8ed 	bl	8002d24 <I2C_Master_Write_Register>

	I2C_Master_Write_Register(&mpu6050, mpu6050_address, 0x1A, 0x03); //4G
 8003b4a:	2303      	movs	r3, #3
 8003b4c:	221a      	movs	r2, #26
 8003b4e:	2168      	movs	r1, #104	@ 0x68
 8003b50:	4865      	ldr	r0, [pc, #404]	@ (8003ce8 <main+0x1f0>)
 8003b52:	f7ff f8e7 	bl	8002d24 <I2C_Master_Write_Register>
	I2C_Master_Write_Register(&mpu6050, mpu6050_address, 0x19, 7); //500 DPS
 8003b56:	2307      	movs	r3, #7
 8003b58:	2219      	movs	r2, #25
 8003b5a:	2168      	movs	r1, #104	@ 0x68
 8003b5c:	4862      	ldr	r0, [pc, #392]	@ (8003ce8 <main+0x1f0>)
 8003b5e:	f7ff f8e1 	bl	8002d24 <I2C_Master_Write_Register>
	I2C_Master_Write_Register(&mpu6050, mpu6050_address, 0x1B, 0x00);
 8003b62:	2300      	movs	r3, #0
 8003b64:	221b      	movs	r2, #27
 8003b66:	2168      	movs	r1, #104	@ 0x68
 8003b68:	485f      	ldr	r0, [pc, #380]	@ (8003ce8 <main+0x1f0>)
 8003b6a:	f7ff f8db 	bl	8002d24 <I2C_Master_Write_Register>
	I2C_Master_Write_Register(&mpu6050, mpu6050_address, 0x1C, 0x00);
 8003b6e:	2300      	movs	r3, #0
 8003b70:	221c      	movs	r2, #28
 8003b72:	2168      	movs	r1, #104	@ 0x68
 8003b74:	485c      	ldr	r0, [pc, #368]	@ (8003ce8 <main+0x1f0>)
 8003b76:	f7ff f8d5 	bl	8002d24 <I2C_Master_Write_Register>
	I2C_Master_Write_Register(&mpu6050, mpu6050_address, INT_PIN_CFG, 0x00);
 8003b7a:	2300      	movs	r3, #0
 8003b7c:	2237      	movs	r2, #55	@ 0x37
 8003b7e:	2168      	movs	r1, #104	@ 0x68
 8003b80:	4859      	ldr	r0, [pc, #356]	@ (8003ce8 <main+0x1f0>)
 8003b82:	f7ff f8cf 	bl	8002d24 <I2C_Master_Write_Register>
	I2C_Master_Write_Register(&mpu6050, mpu6050_address, INT_ENABLE, 0x01);
 8003b86:	2301      	movs	r3, #1
 8003b88:	2238      	movs	r2, #56	@ 0x38
 8003b8a:	2168      	movs	r1, #104	@ 0x68
 8003b8c:	4856      	ldr	r0, [pc, #344]	@ (8003ce8 <main+0x1f0>)
 8003b8e:	f7ff f8c9 	bl	8002d24 <I2C_Master_Write_Register>
	for(;;)
	{
//		if(mpu_data_ready_flag == 1)
//		{

			I2C_Master_Read_Registers_Bulk(&mpu6050, mpu6050_address, ACCEL_XOUT_H, &acceleration, 6);
 8003b92:	2306      	movs	r3, #6
 8003b94:	9300      	str	r3, [sp, #0]
 8003b96:	4b56      	ldr	r3, [pc, #344]	@ (8003cf0 <main+0x1f8>)
 8003b98:	223b      	movs	r2, #59	@ 0x3b
 8003b9a:	2168      	movs	r1, #104	@ 0x68
 8003b9c:	4852      	ldr	r0, [pc, #328]	@ (8003ce8 <main+0x1f0>)
 8003b9e:	f7ff f8e9 	bl	8002d74 <I2C_Master_Read_Registers_Bulk>
			I2C_Master_Read_Registers_Bulk(&mpu6050, mpu6050_address, GYRO_XOUT_H, &gyro, 6);
 8003ba2:	2306      	movs	r3, #6
 8003ba4:	9300      	str	r3, [sp, #0]
 8003ba6:	4b53      	ldr	r3, [pc, #332]	@ (8003cf4 <main+0x1fc>)
 8003ba8:	2243      	movs	r2, #67	@ 0x43
 8003baa:	2168      	movs	r1, #104	@ 0x68
 8003bac:	484e      	ldr	r0, [pc, #312]	@ (8003ce8 <main+0x1f0>)
 8003bae:	f7ff f8e1 	bl	8002d74 <I2C_Master_Read_Registers_Bulk>
//			gyro[2] = I2C_Master_Read_Register(&mpu6050, mpu6050_address, GYRO_YOUT_H);
//			gyro[3] = I2C_Master_Read_Register(&mpu6050, mpu6050_address, GYRO_YOUT_L);
//			gyro[4] = I2C_Master_Read_Register(&mpu6050, mpu6050_address, GYRO_ZOUT_H);
//			gyro[5] = I2C_Master_Read_Register(&mpu6050, mpu6050_address, GYRO_ZOUT_L);

			ACC[0] = ((acceleration[0] << 8) | acceleration[1])/16384.0 ;
 8003bb2:	4b4f      	ldr	r3, [pc, #316]	@ (8003cf0 <main+0x1f8>)
 8003bb4:	781b      	ldrb	r3, [r3, #0]
 8003bb6:	b2db      	uxtb	r3, r3
 8003bb8:	021b      	lsls	r3, r3, #8
 8003bba:	4a4d      	ldr	r2, [pc, #308]	@ (8003cf0 <main+0x1f8>)
 8003bbc:	7852      	ldrb	r2, [r2, #1]
 8003bbe:	b2d2      	uxtb	r2, r2
 8003bc0:	4313      	orrs	r3, r2
 8003bc2:	4618      	mov	r0, r3
 8003bc4:	f7fc fc52 	bl	800046c <__aeabi_i2d>
 8003bc8:	f04f 0200 	mov.w	r2, #0
 8003bcc:	4b4a      	ldr	r3, [pc, #296]	@ (8003cf8 <main+0x200>)
 8003bce:	f7fc fde1 	bl	8000794 <__aeabi_ddiv>
 8003bd2:	4602      	mov	r2, r0
 8003bd4:	460b      	mov	r3, r1
 8003bd6:	4610      	mov	r0, r2
 8003bd8:	4619      	mov	r1, r3
 8003bda:	f7fc fec3 	bl	8000964 <__aeabi_d2f>
 8003bde:	4603      	mov	r3, r0
 8003be0:	4a46      	ldr	r2, [pc, #280]	@ (8003cfc <main+0x204>)
 8003be2:	6013      	str	r3, [r2, #0]
			ACC[1] = ((acceleration[2] << 8) | acceleration[3])/16384.0 ;
 8003be4:	4b42      	ldr	r3, [pc, #264]	@ (8003cf0 <main+0x1f8>)
 8003be6:	789b      	ldrb	r3, [r3, #2]
 8003be8:	b2db      	uxtb	r3, r3
 8003bea:	021b      	lsls	r3, r3, #8
 8003bec:	4a40      	ldr	r2, [pc, #256]	@ (8003cf0 <main+0x1f8>)
 8003bee:	78d2      	ldrb	r2, [r2, #3]
 8003bf0:	b2d2      	uxtb	r2, r2
 8003bf2:	4313      	orrs	r3, r2
 8003bf4:	4618      	mov	r0, r3
 8003bf6:	f7fc fc39 	bl	800046c <__aeabi_i2d>
 8003bfa:	f04f 0200 	mov.w	r2, #0
 8003bfe:	4b3e      	ldr	r3, [pc, #248]	@ (8003cf8 <main+0x200>)
 8003c00:	f7fc fdc8 	bl	8000794 <__aeabi_ddiv>
 8003c04:	4602      	mov	r2, r0
 8003c06:	460b      	mov	r3, r1
 8003c08:	4610      	mov	r0, r2
 8003c0a:	4619      	mov	r1, r3
 8003c0c:	f7fc feaa 	bl	8000964 <__aeabi_d2f>
 8003c10:	4603      	mov	r3, r0
 8003c12:	4a3a      	ldr	r2, [pc, #232]	@ (8003cfc <main+0x204>)
 8003c14:	6053      	str	r3, [r2, #4]
			ACC[2] = ((acceleration[4] << 8) | acceleration[5])/16384.0  ;
 8003c16:	4b36      	ldr	r3, [pc, #216]	@ (8003cf0 <main+0x1f8>)
 8003c18:	791b      	ldrb	r3, [r3, #4]
 8003c1a:	b2db      	uxtb	r3, r3
 8003c1c:	021b      	lsls	r3, r3, #8
 8003c1e:	4a34      	ldr	r2, [pc, #208]	@ (8003cf0 <main+0x1f8>)
 8003c20:	7952      	ldrb	r2, [r2, #5]
 8003c22:	b2d2      	uxtb	r2, r2
 8003c24:	4313      	orrs	r3, r2
 8003c26:	4618      	mov	r0, r3
 8003c28:	f7fc fc20 	bl	800046c <__aeabi_i2d>
 8003c2c:	f04f 0200 	mov.w	r2, #0
 8003c30:	4b31      	ldr	r3, [pc, #196]	@ (8003cf8 <main+0x200>)
 8003c32:	f7fc fdaf 	bl	8000794 <__aeabi_ddiv>
 8003c36:	4602      	mov	r2, r0
 8003c38:	460b      	mov	r3, r1
 8003c3a:	4610      	mov	r0, r2
 8003c3c:	4619      	mov	r1, r3
 8003c3e:	f7fc fe91 	bl	8000964 <__aeabi_d2f>
 8003c42:	4603      	mov	r3, r0
 8003c44:	4a2d      	ldr	r2, [pc, #180]	@ (8003cfc <main+0x204>)
 8003c46:	6093      	str	r3, [r2, #8]

			GYRO[0] = ((gyro[0] << 8) | gyro[1])/250.0 ;
 8003c48:	4b2a      	ldr	r3, [pc, #168]	@ (8003cf4 <main+0x1fc>)
 8003c4a:	781b      	ldrb	r3, [r3, #0]
 8003c4c:	b2db      	uxtb	r3, r3
 8003c4e:	021b      	lsls	r3, r3, #8
 8003c50:	4a28      	ldr	r2, [pc, #160]	@ (8003cf4 <main+0x1fc>)
 8003c52:	7852      	ldrb	r2, [r2, #1]
 8003c54:	b2d2      	uxtb	r2, r2
 8003c56:	4313      	orrs	r3, r2
 8003c58:	4618      	mov	r0, r3
 8003c5a:	f7fc fc07 	bl	800046c <__aeabi_i2d>
 8003c5e:	f04f 0200 	mov.w	r2, #0
 8003c62:	4b27      	ldr	r3, [pc, #156]	@ (8003d00 <main+0x208>)
 8003c64:	f7fc fd96 	bl	8000794 <__aeabi_ddiv>
 8003c68:	4602      	mov	r2, r0
 8003c6a:	460b      	mov	r3, r1
 8003c6c:	4610      	mov	r0, r2
 8003c6e:	4619      	mov	r1, r3
 8003c70:	f7fc fe78 	bl	8000964 <__aeabi_d2f>
 8003c74:	4603      	mov	r3, r0
 8003c76:	4a23      	ldr	r2, [pc, #140]	@ (8003d04 <main+0x20c>)
 8003c78:	6013      	str	r3, [r2, #0]
			GYRO[1] = ((gyro[2] << 8) | gyro[3])/250.0 ;
 8003c7a:	4b1e      	ldr	r3, [pc, #120]	@ (8003cf4 <main+0x1fc>)
 8003c7c:	789b      	ldrb	r3, [r3, #2]
 8003c7e:	b2db      	uxtb	r3, r3
 8003c80:	021b      	lsls	r3, r3, #8
 8003c82:	4a1c      	ldr	r2, [pc, #112]	@ (8003cf4 <main+0x1fc>)
 8003c84:	78d2      	ldrb	r2, [r2, #3]
 8003c86:	b2d2      	uxtb	r2, r2
 8003c88:	4313      	orrs	r3, r2
 8003c8a:	4618      	mov	r0, r3
 8003c8c:	f7fc fbee 	bl	800046c <__aeabi_i2d>
 8003c90:	f04f 0200 	mov.w	r2, #0
 8003c94:	4b1a      	ldr	r3, [pc, #104]	@ (8003d00 <main+0x208>)
 8003c96:	f7fc fd7d 	bl	8000794 <__aeabi_ddiv>
 8003c9a:	4602      	mov	r2, r0
 8003c9c:	460b      	mov	r3, r1
 8003c9e:	4610      	mov	r0, r2
 8003ca0:	4619      	mov	r1, r3
 8003ca2:	f7fc fe5f 	bl	8000964 <__aeabi_d2f>
 8003ca6:	4603      	mov	r3, r0
 8003ca8:	4a16      	ldr	r2, [pc, #88]	@ (8003d04 <main+0x20c>)
 8003caa:	6053      	str	r3, [r2, #4]
			GYRO[2] = ((gyro[4] << 8) | gyro[5])/250.0  ;
 8003cac:	4b11      	ldr	r3, [pc, #68]	@ (8003cf4 <main+0x1fc>)
 8003cae:	791b      	ldrb	r3, [r3, #4]
 8003cb0:	b2db      	uxtb	r3, r3
 8003cb2:	021b      	lsls	r3, r3, #8
 8003cb4:	4a0f      	ldr	r2, [pc, #60]	@ (8003cf4 <main+0x1fc>)
 8003cb6:	7952      	ldrb	r2, [r2, #5]
 8003cb8:	b2d2      	uxtb	r2, r2
 8003cba:	4313      	orrs	r3, r2
 8003cbc:	4618      	mov	r0, r3
 8003cbe:	f7fc fbd5 	bl	800046c <__aeabi_i2d>
 8003cc2:	f04f 0200 	mov.w	r2, #0
 8003cc6:	4b0e      	ldr	r3, [pc, #56]	@ (8003d00 <main+0x208>)
 8003cc8:	f7fc fd64 	bl	8000794 <__aeabi_ddiv>
 8003ccc:	4602      	mov	r2, r0
 8003cce:	460b      	mov	r3, r1
 8003cd0:	4610      	mov	r0, r2
 8003cd2:	4619      	mov	r1, r3
 8003cd4:	f7fc fe46 	bl	8000964 <__aeabi_d2f>
 8003cd8:	4603      	mov	r3, r0
 8003cda:	4a0a      	ldr	r2, [pc, #40]	@ (8003d04 <main+0x20c>)
 8003cdc:	6093      	str	r3, [r2, #8]

			mpu_data_ready_flag = 0;
 8003cde:	4b0a      	ldr	r3, [pc, #40]	@ (8003d08 <main+0x210>)
 8003ce0:	2200      	movs	r2, #0
 8003ce2:	701a      	strb	r2, [r3, #0]
			I2C_Master_Read_Registers_Bulk(&mpu6050, mpu6050_address, ACCEL_XOUT_H, &acceleration, 6);
 8003ce4:	bf00      	nop
 8003ce6:	e754      	b.n	8003b92 <main+0x9a>
 8003ce8:	200003bc 	.word	0x200003bc
 8003cec:	40005400 	.word	0x40005400
 8003cf0:	200003cc 	.word	0x200003cc
 8003cf4:	200003d4 	.word	0x200003d4
 8003cf8:	40d00000 	.word	0x40d00000
 8003cfc:	200003dc 	.word	0x200003dc
 8003d00:	406f4000 	.word	0x406f4000
 8003d04:	200003e8 	.word	0x200003e8
 8003d08:	200003f4 	.word	0x200003f4

08003d0c <SystemInit>:
  *         configuration.
  * @param  None
  * @retval None
  */
void SystemInit(void)
{
 8003d0c:	b480      	push	{r7}
 8003d0e:	af00      	add	r7, sp, #0
  /* FPU settings ------------------------------------------------------------*/
  #if (__FPU_PRESENT == 1) && (__FPU_USED == 1)
    SCB->CPACR |= ((3UL << 10*2)|(3UL << 11*2));  /* set CP10 and CP11 Full Access */
 8003d10:	4b06      	ldr	r3, [pc, #24]	@ (8003d2c <SystemInit+0x20>)
 8003d12:	f8d3 3088 	ldr.w	r3, [r3, #136]	@ 0x88
 8003d16:	4a05      	ldr	r2, [pc, #20]	@ (8003d2c <SystemInit+0x20>)
 8003d18:	f443 0370 	orr.w	r3, r3, #15728640	@ 0xf00000
 8003d1c:	f8c2 3088 	str.w	r3, [r2, #136]	@ 0x88

  /* Configure the Vector Table location -------------------------------------*/
#if defined(USER_VECT_TAB_ADDRESS)
  SCB->VTOR = VECT_TAB_BASE_ADDRESS | VECT_TAB_OFFSET; /* Vector Table Relocation in Internal SRAM */
#endif /* USER_VECT_TAB_ADDRESS */
}
 8003d20:	bf00      	nop
 8003d22:	46bd      	mov	sp, r7
 8003d24:	f85d 7b04 	ldr.w	r7, [sp], #4
 8003d28:	4770      	bx	lr
 8003d2a:	bf00      	nop
 8003d2c:	e000ed00 	.word	0xe000ed00

08003d30 <SystemCoreClockUpdate>:
  *     
  * @param  None
  * @retval None
  */
void SystemCoreClockUpdate(void)
{
 8003d30:	b480      	push	{r7}
 8003d32:	b087      	sub	sp, #28
 8003d34:	af00      	add	r7, sp, #0
  uint32_t tmp = 0, pllvco = 0, pllp = 2, pllsource = 0, pllm = 2;
 8003d36:	2300      	movs	r3, #0
 8003d38:	613b      	str	r3, [r7, #16]
 8003d3a:	2300      	movs	r3, #0
 8003d3c:	617b      	str	r3, [r7, #20]
 8003d3e:	2302      	movs	r3, #2
 8003d40:	60fb      	str	r3, [r7, #12]
 8003d42:	2300      	movs	r3, #0
 8003d44:	60bb      	str	r3, [r7, #8]
 8003d46:	2302      	movs	r3, #2
 8003d48:	607b      	str	r3, [r7, #4]
  
  /* Get SYSCLK source -------------------------------------------------------*/
  tmp = RCC->CFGR & RCC_CFGR_SWS;
 8003d4a:	4b34      	ldr	r3, [pc, #208]	@ (8003e1c <SystemCoreClockUpdate+0xec>)
 8003d4c:	689b      	ldr	r3, [r3, #8]
 8003d4e:	f003 030c 	and.w	r3, r3, #12
 8003d52:	613b      	str	r3, [r7, #16]

  switch (tmp)
 8003d54:	693b      	ldr	r3, [r7, #16]
 8003d56:	2b08      	cmp	r3, #8
 8003d58:	d011      	beq.n	8003d7e <SystemCoreClockUpdate+0x4e>
 8003d5a:	693b      	ldr	r3, [r7, #16]
 8003d5c:	2b08      	cmp	r3, #8
 8003d5e:	d844      	bhi.n	8003dea <SystemCoreClockUpdate+0xba>
 8003d60:	693b      	ldr	r3, [r7, #16]
 8003d62:	2b00      	cmp	r3, #0
 8003d64:	d003      	beq.n	8003d6e <SystemCoreClockUpdate+0x3e>
 8003d66:	693b      	ldr	r3, [r7, #16]
 8003d68:	2b04      	cmp	r3, #4
 8003d6a:	d004      	beq.n	8003d76 <SystemCoreClockUpdate+0x46>
 8003d6c:	e03d      	b.n	8003dea <SystemCoreClockUpdate+0xba>
  {
    case 0x00:  /* HSI used as system clock source */
      SystemCoreClock = HSI_VALUE;
 8003d6e:	4b2c      	ldr	r3, [pc, #176]	@ (8003e20 <SystemCoreClockUpdate+0xf0>)
 8003d70:	4a2c      	ldr	r2, [pc, #176]	@ (8003e24 <SystemCoreClockUpdate+0xf4>)
 8003d72:	601a      	str	r2, [r3, #0]
      break;
 8003d74:	e03d      	b.n	8003df2 <SystemCoreClockUpdate+0xc2>
    case 0x04:  /* HSE used as system clock source */
      SystemCoreClock = HSE_VALUE;
 8003d76:	4b2a      	ldr	r3, [pc, #168]	@ (8003e20 <SystemCoreClockUpdate+0xf0>)
 8003d78:	4a2b      	ldr	r2, [pc, #172]	@ (8003e28 <SystemCoreClockUpdate+0xf8>)
 8003d7a:	601a      	str	r2, [r3, #0]
      break;
 8003d7c:	e039      	b.n	8003df2 <SystemCoreClockUpdate+0xc2>
    case 0x08:  /* PLL used as system clock source */

      /* PLL_VCO = (HSE_VALUE or HSI_VALUE / PLL_M) * PLL_N
         SYSCLK = PLL_VCO / PLL_P
         */    
      pllsource = (RCC->PLLCFGR & RCC_PLLCFGR_PLLSRC) >> 22;
 8003d7e:	4b27      	ldr	r3, [pc, #156]	@ (8003e1c <SystemCoreClockUpdate+0xec>)
 8003d80:	685b      	ldr	r3, [r3, #4]
 8003d82:	0d9b      	lsrs	r3, r3, #22
 8003d84:	f003 0301 	and.w	r3, r3, #1
 8003d88:	60bb      	str	r3, [r7, #8]
      pllm = RCC->PLLCFGR & RCC_PLLCFGR_PLLM;
 8003d8a:	4b24      	ldr	r3, [pc, #144]	@ (8003e1c <SystemCoreClockUpdate+0xec>)
 8003d8c:	685b      	ldr	r3, [r3, #4]
 8003d8e:	f003 033f 	and.w	r3, r3, #63	@ 0x3f
 8003d92:	607b      	str	r3, [r7, #4]
      
      if (pllsource != 0)
 8003d94:	68bb      	ldr	r3, [r7, #8]
 8003d96:	2b00      	cmp	r3, #0
 8003d98:	d00c      	beq.n	8003db4 <SystemCoreClockUpdate+0x84>
      {
        /* HSE used as PLL clock source */
        pllvco = (HSE_VALUE / pllm) * ((RCC->PLLCFGR & RCC_PLLCFGR_PLLN) >> 6);
 8003d9a:	4a23      	ldr	r2, [pc, #140]	@ (8003e28 <SystemCoreClockUpdate+0xf8>)
 8003d9c:	687b      	ldr	r3, [r7, #4]
 8003d9e:	fbb2 f3f3 	udiv	r3, r2, r3
 8003da2:	4a1e      	ldr	r2, [pc, #120]	@ (8003e1c <SystemCoreClockUpdate+0xec>)
 8003da4:	6852      	ldr	r2, [r2, #4]
 8003da6:	0992      	lsrs	r2, r2, #6
 8003da8:	f3c2 0208 	ubfx	r2, r2, #0, #9
 8003dac:	fb02 f303 	mul.w	r3, r2, r3
 8003db0:	617b      	str	r3, [r7, #20]
 8003db2:	e00b      	b.n	8003dcc <SystemCoreClockUpdate+0x9c>
      }
      else
      {
        /* HSI used as PLL clock source */
        pllvco = (HSI_VALUE / pllm) * ((RCC->PLLCFGR & RCC_PLLCFGR_PLLN) >> 6);
 8003db4:	4a1b      	ldr	r2, [pc, #108]	@ (8003e24 <SystemCoreClockUpdate+0xf4>)
 8003db6:	687b      	ldr	r3, [r7, #4]
 8003db8:	fbb2 f3f3 	udiv	r3, r2, r3
 8003dbc:	4a17      	ldr	r2, [pc, #92]	@ (8003e1c <SystemCoreClockUpdate+0xec>)
 8003dbe:	6852      	ldr	r2, [r2, #4]
 8003dc0:	0992      	lsrs	r2, r2, #6
 8003dc2:	f3c2 0208 	ubfx	r2, r2, #0, #9
 8003dc6:	fb02 f303 	mul.w	r3, r2, r3
 8003dca:	617b      	str	r3, [r7, #20]
      }

      pllp = (((RCC->PLLCFGR & RCC_PLLCFGR_PLLP) >>16) + 1 ) *2;
 8003dcc:	4b13      	ldr	r3, [pc, #76]	@ (8003e1c <SystemCoreClockUpdate+0xec>)
 8003dce:	685b      	ldr	r3, [r3, #4]
 8003dd0:	0c1b      	lsrs	r3, r3, #16
 8003dd2:	f003 0303 	and.w	r3, r3, #3
 8003dd6:	3301      	adds	r3, #1
 8003dd8:	005b      	lsls	r3, r3, #1
 8003dda:	60fb      	str	r3, [r7, #12]
      SystemCoreClock = pllvco/pllp;
 8003ddc:	697a      	ldr	r2, [r7, #20]
 8003dde:	68fb      	ldr	r3, [r7, #12]
 8003de0:	fbb2 f3f3 	udiv	r3, r2, r3
 8003de4:	4a0e      	ldr	r2, [pc, #56]	@ (8003e20 <SystemCoreClockUpdate+0xf0>)
 8003de6:	6013      	str	r3, [r2, #0]
      break;
 8003de8:	e003      	b.n	8003df2 <SystemCoreClockUpdate+0xc2>
    default:
      SystemCoreClock = HSI_VALUE;
 8003dea:	4b0d      	ldr	r3, [pc, #52]	@ (8003e20 <SystemCoreClockUpdate+0xf0>)
 8003dec:	4a0d      	ldr	r2, [pc, #52]	@ (8003e24 <SystemCoreClockUpdate+0xf4>)
 8003dee:	601a      	str	r2, [r3, #0]
      break;
 8003df0:	bf00      	nop
  }
  /* Compute HCLK frequency --------------------------------------------------*/
  /* Get HCLK prescaler */
  tmp = AHBPrescTable[((RCC->CFGR & RCC_CFGR_HPRE) >> 4)];
 8003df2:	4b0a      	ldr	r3, [pc, #40]	@ (8003e1c <SystemCoreClockUpdate+0xec>)
 8003df4:	689b      	ldr	r3, [r3, #8]
 8003df6:	091b      	lsrs	r3, r3, #4
 8003df8:	f003 030f 	and.w	r3, r3, #15
 8003dfc:	4a0b      	ldr	r2, [pc, #44]	@ (8003e2c <SystemCoreClockUpdate+0xfc>)
 8003dfe:	5cd3      	ldrb	r3, [r2, r3]
 8003e00:	613b      	str	r3, [r7, #16]
  /* HCLK frequency */
  SystemCoreClock >>= tmp;
 8003e02:	4b07      	ldr	r3, [pc, #28]	@ (8003e20 <SystemCoreClockUpdate+0xf0>)
 8003e04:	681a      	ldr	r2, [r3, #0]
 8003e06:	693b      	ldr	r3, [r7, #16]
 8003e08:	fa22 f303 	lsr.w	r3, r2, r3
 8003e0c:	4a04      	ldr	r2, [pc, #16]	@ (8003e20 <SystemCoreClockUpdate+0xf0>)
 8003e0e:	6013      	str	r3, [r2, #0]
}
 8003e10:	bf00      	nop
 8003e12:	371c      	adds	r7, #28
 8003e14:	46bd      	mov	sp, r7
 8003e16:	f85d 7b04 	ldr.w	r7, [sp], #4
 8003e1a:	4770      	bx	lr
 8003e1c:	40023800 	.word	0x40023800
 8003e20:	20000000 	.word	0x20000000
 8003e24:	00f42400 	.word	0x00f42400
 8003e28:	017d7840 	.word	0x017d7840
 8003e2c:	080042e8 	.word	0x080042e8

08003e30 <Reset_Handler>:

  .section .text.Reset_Handler
  .weak Reset_Handler
  .type Reset_Handler, %function
Reset_Handler:
  ldr   r0, =_estack
 8003e30:	480d      	ldr	r0, [pc, #52]	@ (8003e68 <LoopForever+0x2>)
  mov   sp, r0          /* set stack pointer */
 8003e32:	4685      	mov	sp, r0
/* Call the clock system initialization function.*/
  bl  SystemInit
 8003e34:	f7ff ff6a 	bl	8003d0c <SystemInit>

/* Copy the data segment initializers from flash to SRAM */
  ldr r0, =_sdata
 8003e38:	480c      	ldr	r0, [pc, #48]	@ (8003e6c <LoopForever+0x6>)
  ldr r1, =_edata
 8003e3a:	490d      	ldr	r1, [pc, #52]	@ (8003e70 <LoopForever+0xa>)
  ldr r2, =_sidata
 8003e3c:	4a0d      	ldr	r2, [pc, #52]	@ (8003e74 <LoopForever+0xe>)
  movs r3, #0
 8003e3e:	2300      	movs	r3, #0
  b LoopCopyDataInit
 8003e40:	e002      	b.n	8003e48 <LoopCopyDataInit>

08003e42 <CopyDataInit>:

CopyDataInit:
  ldr r4, [r2, r3]
 8003e42:	58d4      	ldr	r4, [r2, r3]
  str r4, [r0, r3]
 8003e44:	50c4      	str	r4, [r0, r3]
  adds r3, r3, #4
 8003e46:	3304      	adds	r3, #4

08003e48 <LoopCopyDataInit>:

LoopCopyDataInit:
  adds r4, r0, r3
 8003e48:	18c4      	adds	r4, r0, r3
  cmp r4, r1
 8003e4a:	428c      	cmp	r4, r1
  bcc CopyDataInit
 8003e4c:	d3f9      	bcc.n	8003e42 <CopyDataInit>

/* Zero fill the bss segment. */
  ldr r2, =_sbss
 8003e4e:	4a0a      	ldr	r2, [pc, #40]	@ (8003e78 <LoopForever+0x12>)
  ldr r4, =_ebss
 8003e50:	4c0a      	ldr	r4, [pc, #40]	@ (8003e7c <LoopForever+0x16>)
  movs r3, #0
 8003e52:	2300      	movs	r3, #0
  b LoopFillZerobss
 8003e54:	e001      	b.n	8003e5a <LoopFillZerobss>

08003e56 <FillZerobss>:

FillZerobss:
  str  r3, [r2]
 8003e56:	6013      	str	r3, [r2, #0]
  adds r2, r2, #4
 8003e58:	3204      	adds	r2, #4

08003e5a <LoopFillZerobss>:

LoopFillZerobss:
  cmp r2, r4
 8003e5a:	42a2      	cmp	r2, r4
  bcc FillZerobss
 8003e5c:	d3fb      	bcc.n	8003e56 <FillZerobss>

/* Call static constructors */
  bl __libc_init_array
 8003e5e:	f000 f811 	bl	8003e84 <__libc_init_array>
/* Call the application's entry point.*/
  bl main
 8003e62:	f7ff fe49 	bl	8003af8 <main>

08003e66 <LoopForever>:

LoopForever:
  b LoopForever
 8003e66:	e7fe      	b.n	8003e66 <LoopForever>
  ldr   r0, =_estack
 8003e68:	20020000 	.word	0x20020000
  ldr r0, =_sdata
 8003e6c:	20000000 	.word	0x20000000
  ldr r1, =_edata
 8003e70:	20000004 	.word	0x20000004
  ldr r2, =_sidata
 8003e74:	08004300 	.word	0x08004300
  ldr r2, =_sbss
 8003e78:	20000004 	.word	0x20000004
  ldr r4, =_ebss
 8003e7c:	200003f8 	.word	0x200003f8

08003e80 <ADC_IRQHandler>:
 * @retval : None
*/
  .section .text.Default_Handler,"ax",%progbits
Default_Handler:
Infinite_Loop:
  b Infinite_Loop
 8003e80:	e7fe      	b.n	8003e80 <ADC_IRQHandler>
	...

08003e84 <__libc_init_array>:
 8003e84:	b570      	push	{r4, r5, r6, lr}
 8003e86:	4d0d      	ldr	r5, [pc, #52]	@ (8003ebc <__libc_init_array+0x38>)
 8003e88:	4c0d      	ldr	r4, [pc, #52]	@ (8003ec0 <__libc_init_array+0x3c>)
 8003e8a:	1b64      	subs	r4, r4, r5
 8003e8c:	10a4      	asrs	r4, r4, #2
 8003e8e:	2600      	movs	r6, #0
 8003e90:	42a6      	cmp	r6, r4
 8003e92:	d109      	bne.n	8003ea8 <__libc_init_array+0x24>
 8003e94:	4d0b      	ldr	r5, [pc, #44]	@ (8003ec4 <__libc_init_array+0x40>)
 8003e96:	4c0c      	ldr	r4, [pc, #48]	@ (8003ec8 <__libc_init_array+0x44>)
 8003e98:	f000 f818 	bl	8003ecc <_init>
 8003e9c:	1b64      	subs	r4, r4, r5
 8003e9e:	10a4      	asrs	r4, r4, #2
 8003ea0:	2600      	movs	r6, #0
 8003ea2:	42a6      	cmp	r6, r4
 8003ea4:	d105      	bne.n	8003eb2 <__libc_init_array+0x2e>
 8003ea6:	bd70      	pop	{r4, r5, r6, pc}
 8003ea8:	f855 3b04 	ldr.w	r3, [r5], #4
 8003eac:	4798      	blx	r3
 8003eae:	3601      	adds	r6, #1
 8003eb0:	e7ee      	b.n	8003e90 <__libc_init_array+0xc>
 8003eb2:	f855 3b04 	ldr.w	r3, [r5], #4
 8003eb6:	4798      	blx	r3
 8003eb8:	3601      	adds	r6, #1
 8003eba:	e7f2      	b.n	8003ea2 <__libc_init_array+0x1e>
 8003ebc:	080042f8 	.word	0x080042f8
 8003ec0:	080042f8 	.word	0x080042f8
 8003ec4:	080042f8 	.word	0x080042f8
 8003ec8:	080042fc 	.word	0x080042fc

08003ecc <_init>:
 8003ecc:	b5f8      	push	{r3, r4, r5, r6, r7, lr}
 8003ece:	bf00      	nop
 8003ed0:	bcf8      	pop	{r3, r4, r5, r6, r7}
 8003ed2:	bc08      	pop	{r3}
 8003ed4:	469e      	mov	lr, r3
 8003ed6:	4770      	bx	lr

08003ed8 <_fini>:
 8003ed8:	b5f8      	push	{r3, r4, r5, r6, r7, lr}
 8003eda:	bf00      	nop
 8003edc:	bcf8      	pop	{r3, r4, r5, r6, r7}
 8003ede:	bc08      	pop	{r3}
 8003ee0:	469e      	mov	lr, r3
 8003ee2:	4770      	bx	lr
